
user/_usertests:     file format elf64-littleriscv


Disassembly of section .text:

0000000000000000 <copyinstr1>:
}

// what if you pass ridiculous string pointers to system calls?
void
copyinstr1(char *s)
{
       0:	1141                	addi	sp,sp,-16
       2:	e406                	sd	ra,8(sp)
       4:	e022                	sd	s0,0(sp)
       6:	0800                	addi	s0,sp,16
  uint64 addrs[] = { 0x80000000LL, 0xffffffffffffffff };

  for(int ai = 0; ai < 2; ai++){
    uint64 addr = addrs[ai];

    int fd = open((char *)addr, O_CREATE|O_WRONLY);
       8:	20100593          	li	a1,513
       c:	4505                	li	a0,1
       e:	057e                	slli	a0,a0,0x1f
      10:	00006097          	auipc	ra,0x6
      14:	ea8080e7          	jalr	-344(ra) # 5eb8 <open>
    if(fd >= 0){
      18:	02055063          	bgez	a0,38 <copyinstr1+0x38>
    int fd = open((char *)addr, O_CREATE|O_WRONLY);
      1c:	20100593          	li	a1,513
      20:	557d                	li	a0,-1
      22:	00006097          	auipc	ra,0x6
      26:	e96080e7          	jalr	-362(ra) # 5eb8 <open>
    if(fd >= 0){
      2a:	55fd                	li	a1,-1
      2c:	00055863          	bgez	a0,3c <copyinstr1+0x3c>
      printf("open(%p) returned %d, not -1\n", addr, fd);
      exit(1);
    }
  }
}
      30:	60a2                	ld	ra,8(sp)
      32:	6402                	ld	s0,0(sp)
      34:	0141                	addi	sp,sp,16
      36:	8082                	ret
    uint64 addr = addrs[ai];
      38:	4585                	li	a1,1
      3a:	05fe                	slli	a1,a1,0x1f
      printf("open(%p) returned %d, not -1\n", addr, fd);
      3c:	862a                	mv	a2,a0
      3e:	00006517          	auipc	a0,0x6
      42:	37250513          	addi	a0,a0,882 # 63b0 <malloc+0xfe>
      46:	00006097          	auipc	ra,0x6
      4a:	1b0080e7          	jalr	432(ra) # 61f6 <printf>
      exit(1);
      4e:	4505                	li	a0,1
      50:	00006097          	auipc	ra,0x6
      54:	e28080e7          	jalr	-472(ra) # 5e78 <exit>

0000000000000058 <bsstest>:
void
bsstest(char *s)
{
  int i;

  for(i = 0; i < sizeof(uninit); i++){
      58:	0000a797          	auipc	a5,0xa
      5c:	51078793          	addi	a5,a5,1296 # a568 <uninit>
      60:	0000d697          	auipc	a3,0xd
      64:	c1868693          	addi	a3,a3,-1000 # cc78 <buf>
    if(uninit[i] != '\0'){
      68:	0007c703          	lbu	a4,0(a5)
      6c:	e709                	bnez	a4,76 <bsstest+0x1e>
  for(i = 0; i < sizeof(uninit); i++){
      6e:	0785                	addi	a5,a5,1
      70:	fed79ce3          	bne	a5,a3,68 <bsstest+0x10>
      74:	8082                	ret
{
      76:	1141                	addi	sp,sp,-16
      78:	e406                	sd	ra,8(sp)
      7a:	e022                	sd	s0,0(sp)
      7c:	0800                	addi	s0,sp,16
      printf("%s: bss test failed\n", s);
      7e:	85aa                	mv	a1,a0
      80:	00006517          	auipc	a0,0x6
      84:	35050513          	addi	a0,a0,848 # 63d0 <malloc+0x11e>
      88:	00006097          	auipc	ra,0x6
      8c:	16e080e7          	jalr	366(ra) # 61f6 <printf>
      exit(1);
      90:	4505                	li	a0,1
      92:	00006097          	auipc	ra,0x6
      96:	de6080e7          	jalr	-538(ra) # 5e78 <exit>

000000000000009a <opentest>:
{
      9a:	1101                	addi	sp,sp,-32
      9c:	ec06                	sd	ra,24(sp)
      9e:	e822                	sd	s0,16(sp)
      a0:	e426                	sd	s1,8(sp)
      a2:	1000                	addi	s0,sp,32
      a4:	84aa                	mv	s1,a0
  fd = open("echo", 0);
      a6:	4581                	li	a1,0
      a8:	00006517          	auipc	a0,0x6
      ac:	34050513          	addi	a0,a0,832 # 63e8 <malloc+0x136>
      b0:	00006097          	auipc	ra,0x6
      b4:	e08080e7          	jalr	-504(ra) # 5eb8 <open>
  if(fd < 0){
      b8:	02054663          	bltz	a0,e4 <opentest+0x4a>
  close(fd);
      bc:	00006097          	auipc	ra,0x6
      c0:	de4080e7          	jalr	-540(ra) # 5ea0 <close>
  fd = open("doesnotexist", 0);
      c4:	4581                	li	a1,0
      c6:	00006517          	auipc	a0,0x6
      ca:	34250513          	addi	a0,a0,834 # 6408 <malloc+0x156>
      ce:	00006097          	auipc	ra,0x6
      d2:	dea080e7          	jalr	-534(ra) # 5eb8 <open>
  if(fd >= 0){
      d6:	02055563          	bgez	a0,100 <opentest+0x66>
}
      da:	60e2                	ld	ra,24(sp)
      dc:	6442                	ld	s0,16(sp)
      de:	64a2                	ld	s1,8(sp)
      e0:	6105                	addi	sp,sp,32
      e2:	8082                	ret
    printf("%s: open echo failed!\n", s);
      e4:	85a6                	mv	a1,s1
      e6:	00006517          	auipc	a0,0x6
      ea:	30a50513          	addi	a0,a0,778 # 63f0 <malloc+0x13e>
      ee:	00006097          	auipc	ra,0x6
      f2:	108080e7          	jalr	264(ra) # 61f6 <printf>
    exit(1);
      f6:	4505                	li	a0,1
      f8:	00006097          	auipc	ra,0x6
      fc:	d80080e7          	jalr	-640(ra) # 5e78 <exit>
    printf("%s: open doesnotexist succeeded!\n", s);
     100:	85a6                	mv	a1,s1
     102:	00006517          	auipc	a0,0x6
     106:	31650513          	addi	a0,a0,790 # 6418 <malloc+0x166>
     10a:	00006097          	auipc	ra,0x6
     10e:	0ec080e7          	jalr	236(ra) # 61f6 <printf>
    exit(1);
     112:	4505                	li	a0,1
     114:	00006097          	auipc	ra,0x6
     118:	d64080e7          	jalr	-668(ra) # 5e78 <exit>

000000000000011c <truncate2>:
{
     11c:	7179                	addi	sp,sp,-48
     11e:	f406                	sd	ra,40(sp)
     120:	f022                	sd	s0,32(sp)
     122:	ec26                	sd	s1,24(sp)
     124:	e84a                	sd	s2,16(sp)
     126:	e44e                	sd	s3,8(sp)
     128:	1800                	addi	s0,sp,48
     12a:	89aa                	mv	s3,a0
  unlink("truncfile");
     12c:	00006517          	auipc	a0,0x6
     130:	31450513          	addi	a0,a0,788 # 6440 <malloc+0x18e>
     134:	00006097          	auipc	ra,0x6
     138:	d94080e7          	jalr	-620(ra) # 5ec8 <unlink>
  int fd1 = open("truncfile", O_CREATE|O_TRUNC|O_WRONLY);
     13c:	60100593          	li	a1,1537
     140:	00006517          	auipc	a0,0x6
     144:	30050513          	addi	a0,a0,768 # 6440 <malloc+0x18e>
     148:	00006097          	auipc	ra,0x6
     14c:	d70080e7          	jalr	-656(ra) # 5eb8 <open>
     150:	84aa                	mv	s1,a0
  write(fd1, "abcd", 4);
     152:	4611                	li	a2,4
     154:	00006597          	auipc	a1,0x6
     158:	2fc58593          	addi	a1,a1,764 # 6450 <malloc+0x19e>
     15c:	00006097          	auipc	ra,0x6
     160:	d3c080e7          	jalr	-708(ra) # 5e98 <write>
  int fd2 = open("truncfile", O_TRUNC|O_WRONLY);
     164:	40100593          	li	a1,1025
     168:	00006517          	auipc	a0,0x6
     16c:	2d850513          	addi	a0,a0,728 # 6440 <malloc+0x18e>
     170:	00006097          	auipc	ra,0x6
     174:	d48080e7          	jalr	-696(ra) # 5eb8 <open>
     178:	892a                	mv	s2,a0
  int n = write(fd1, "x", 1);
     17a:	4605                	li	a2,1
     17c:	00006597          	auipc	a1,0x6
     180:	2dc58593          	addi	a1,a1,732 # 6458 <malloc+0x1a6>
     184:	8526                	mv	a0,s1
     186:	00006097          	auipc	ra,0x6
     18a:	d12080e7          	jalr	-750(ra) # 5e98 <write>
  if(n != -1){
     18e:	57fd                	li	a5,-1
     190:	02f51b63          	bne	a0,a5,1c6 <truncate2+0xaa>
  unlink("truncfile");
     194:	00006517          	auipc	a0,0x6
     198:	2ac50513          	addi	a0,a0,684 # 6440 <malloc+0x18e>
     19c:	00006097          	auipc	ra,0x6
     1a0:	d2c080e7          	jalr	-724(ra) # 5ec8 <unlink>
  close(fd1);
     1a4:	8526                	mv	a0,s1
     1a6:	00006097          	auipc	ra,0x6
     1aa:	cfa080e7          	jalr	-774(ra) # 5ea0 <close>
  close(fd2);
     1ae:	854a                	mv	a0,s2
     1b0:	00006097          	auipc	ra,0x6
     1b4:	cf0080e7          	jalr	-784(ra) # 5ea0 <close>
}
     1b8:	70a2                	ld	ra,40(sp)
     1ba:	7402                	ld	s0,32(sp)
     1bc:	64e2                	ld	s1,24(sp)
     1be:	6942                	ld	s2,16(sp)
     1c0:	69a2                	ld	s3,8(sp)
     1c2:	6145                	addi	sp,sp,48
     1c4:	8082                	ret
    printf("%s: write returned %d, expected -1\n", s, n);
     1c6:	862a                	mv	a2,a0
     1c8:	85ce                	mv	a1,s3
     1ca:	00006517          	auipc	a0,0x6
     1ce:	29650513          	addi	a0,a0,662 # 6460 <malloc+0x1ae>
     1d2:	00006097          	auipc	ra,0x6
     1d6:	024080e7          	jalr	36(ra) # 61f6 <printf>
    exit(1);
     1da:	4505                	li	a0,1
     1dc:	00006097          	auipc	ra,0x6
     1e0:	c9c080e7          	jalr	-868(ra) # 5e78 <exit>

00000000000001e4 <createtest>:
{
     1e4:	7139                	addi	sp,sp,-64
     1e6:	fc06                	sd	ra,56(sp)
     1e8:	f822                	sd	s0,48(sp)
     1ea:	f426                	sd	s1,40(sp)
     1ec:	f04a                	sd	s2,32(sp)
     1ee:	ec4e                	sd	s3,24(sp)
     1f0:	e852                	sd	s4,16(sp)
     1f2:	0080                	addi	s0,sp,64
  name[0] = 'a';
     1f4:	06100793          	li	a5,97
     1f8:	fcf40423          	sb	a5,-56(s0)
  name[2] = '\0';
     1fc:	fc040523          	sb	zero,-54(s0)
     200:	03000493          	li	s1,48
    fd = open(name, O_CREATE|O_RDWR);
     204:	fc840a13          	addi	s4,s0,-56
     208:	20200993          	li	s3,514
  for(i = 0; i < N; i++){
     20c:	06400913          	li	s2,100
    name[1] = '0' + i;
     210:	fc9404a3          	sb	s1,-55(s0)
    fd = open(name, O_CREATE|O_RDWR);
     214:	85ce                	mv	a1,s3
     216:	8552                	mv	a0,s4
     218:	00006097          	auipc	ra,0x6
     21c:	ca0080e7          	jalr	-864(ra) # 5eb8 <open>
    close(fd);
     220:	00006097          	auipc	ra,0x6
     224:	c80080e7          	jalr	-896(ra) # 5ea0 <close>
  for(i = 0; i < N; i++){
     228:	2485                	addiw	s1,s1,1
     22a:	0ff4f493          	zext.b	s1,s1
     22e:	ff2491e3          	bne	s1,s2,210 <createtest+0x2c>
  name[0] = 'a';
     232:	06100793          	li	a5,97
     236:	fcf40423          	sb	a5,-56(s0)
  name[2] = '\0';
     23a:	fc040523          	sb	zero,-54(s0)
     23e:	03000493          	li	s1,48
    unlink(name);
     242:	fc840993          	addi	s3,s0,-56
  for(i = 0; i < N; i++){
     246:	06400913          	li	s2,100
    name[1] = '0' + i;
     24a:	fc9404a3          	sb	s1,-55(s0)
    unlink(name);
     24e:	854e                	mv	a0,s3
     250:	00006097          	auipc	ra,0x6
     254:	c78080e7          	jalr	-904(ra) # 5ec8 <unlink>
  for(i = 0; i < N; i++){
     258:	2485                	addiw	s1,s1,1
     25a:	0ff4f493          	zext.b	s1,s1
     25e:	ff2496e3          	bne	s1,s2,24a <createtest+0x66>
}
     262:	70e2                	ld	ra,56(sp)
     264:	7442                	ld	s0,48(sp)
     266:	74a2                	ld	s1,40(sp)
     268:	7902                	ld	s2,32(sp)
     26a:	69e2                	ld	s3,24(sp)
     26c:	6a42                	ld	s4,16(sp)
     26e:	6121                	addi	sp,sp,64
     270:	8082                	ret

0000000000000272 <bigwrite>:
{
     272:	715d                	addi	sp,sp,-80
     274:	e486                	sd	ra,72(sp)
     276:	e0a2                	sd	s0,64(sp)
     278:	fc26                	sd	s1,56(sp)
     27a:	f84a                	sd	s2,48(sp)
     27c:	f44e                	sd	s3,40(sp)
     27e:	f052                	sd	s4,32(sp)
     280:	ec56                	sd	s5,24(sp)
     282:	e85a                	sd	s6,16(sp)
     284:	e45e                	sd	s7,8(sp)
     286:	e062                	sd	s8,0(sp)
     288:	0880                	addi	s0,sp,80
     28a:	8c2a                	mv	s8,a0
  unlink("bigwrite");
     28c:	00006517          	auipc	a0,0x6
     290:	1fc50513          	addi	a0,a0,508 # 6488 <malloc+0x1d6>
     294:	00006097          	auipc	ra,0x6
     298:	c34080e7          	jalr	-972(ra) # 5ec8 <unlink>
  for(sz = 499; sz < (MAXOPBLOCKS+2)*BSIZE; sz += 471){
     29c:	1f300493          	li	s1,499
    fd = open("bigwrite", O_CREATE | O_RDWR);
     2a0:	20200b93          	li	s7,514
     2a4:	00006a97          	auipc	s5,0x6
     2a8:	1e4a8a93          	addi	s5,s5,484 # 6488 <malloc+0x1d6>
      int cc = write(fd, buf, sz);
     2ac:	0000da17          	auipc	s4,0xd
     2b0:	9cca0a13          	addi	s4,s4,-1588 # cc78 <buf>
  for(sz = 499; sz < (MAXOPBLOCKS+2)*BSIZE; sz += 471){
     2b4:	6b0d                	lui	s6,0x3
     2b6:	1c9b0b13          	addi	s6,s6,457 # 31c9 <fourteen+0x61>
    fd = open("bigwrite", O_CREATE | O_RDWR);
     2ba:	85de                	mv	a1,s7
     2bc:	8556                	mv	a0,s5
     2be:	00006097          	auipc	ra,0x6
     2c2:	bfa080e7          	jalr	-1030(ra) # 5eb8 <open>
     2c6:	892a                	mv	s2,a0
    if(fd < 0){
     2c8:	04054e63          	bltz	a0,324 <bigwrite+0xb2>
      int cc = write(fd, buf, sz);
     2cc:	8626                	mv	a2,s1
     2ce:	85d2                	mv	a1,s4
     2d0:	00006097          	auipc	ra,0x6
     2d4:	bc8080e7          	jalr	-1080(ra) # 5e98 <write>
     2d8:	89aa                	mv	s3,a0
      if(cc != sz){
     2da:	06a49363          	bne	s1,a0,340 <bigwrite+0xce>
      int cc = write(fd, buf, sz);
     2de:	8626                	mv	a2,s1
     2e0:	85d2                	mv	a1,s4
     2e2:	854a                	mv	a0,s2
     2e4:	00006097          	auipc	ra,0x6
     2e8:	bb4080e7          	jalr	-1100(ra) # 5e98 <write>
      if(cc != sz){
     2ec:	04951b63          	bne	a0,s1,342 <bigwrite+0xd0>
    close(fd);
     2f0:	854a                	mv	a0,s2
     2f2:	00006097          	auipc	ra,0x6
     2f6:	bae080e7          	jalr	-1106(ra) # 5ea0 <close>
    unlink("bigwrite");
     2fa:	8556                	mv	a0,s5
     2fc:	00006097          	auipc	ra,0x6
     300:	bcc080e7          	jalr	-1076(ra) # 5ec8 <unlink>
  for(sz = 499; sz < (MAXOPBLOCKS+2)*BSIZE; sz += 471){
     304:	1d74849b          	addiw	s1,s1,471
     308:	fb6499e3          	bne	s1,s6,2ba <bigwrite+0x48>
}
     30c:	60a6                	ld	ra,72(sp)
     30e:	6406                	ld	s0,64(sp)
     310:	74e2                	ld	s1,56(sp)
     312:	7942                	ld	s2,48(sp)
     314:	79a2                	ld	s3,40(sp)
     316:	7a02                	ld	s4,32(sp)
     318:	6ae2                	ld	s5,24(sp)
     31a:	6b42                	ld	s6,16(sp)
     31c:	6ba2                	ld	s7,8(sp)
     31e:	6c02                	ld	s8,0(sp)
     320:	6161                	addi	sp,sp,80
     322:	8082                	ret
      printf("%s: cannot create bigwrite\n", s);
     324:	85e2                	mv	a1,s8
     326:	00006517          	auipc	a0,0x6
     32a:	17250513          	addi	a0,a0,370 # 6498 <malloc+0x1e6>
     32e:	00006097          	auipc	ra,0x6
     332:	ec8080e7          	jalr	-312(ra) # 61f6 <printf>
      exit(1);
     336:	4505                	li	a0,1
     338:	00006097          	auipc	ra,0x6
     33c:	b40080e7          	jalr	-1216(ra) # 5e78 <exit>
      if(cc != sz){
     340:	89a6                	mv	s3,s1
        printf("%s: write(%d) ret %d\n", s, sz, cc);
     342:	86aa                	mv	a3,a0
     344:	864e                	mv	a2,s3
     346:	85e2                	mv	a1,s8
     348:	00006517          	auipc	a0,0x6
     34c:	17050513          	addi	a0,a0,368 # 64b8 <malloc+0x206>
     350:	00006097          	auipc	ra,0x6
     354:	ea6080e7          	jalr	-346(ra) # 61f6 <printf>
        exit(1);
     358:	4505                	li	a0,1
     35a:	00006097          	auipc	ra,0x6
     35e:	b1e080e7          	jalr	-1250(ra) # 5e78 <exit>

0000000000000362 <badwrite>:
// file is deleted? if the kernel has this bug, it will panic: balloc:
// out of blocks. assumed_free may need to be raised to be more than
// the number of free blocks. this test takes a long time.
void
badwrite(char *s)
{
     362:	7139                	addi	sp,sp,-64
     364:	fc06                	sd	ra,56(sp)
     366:	f822                	sd	s0,48(sp)
     368:	f426                	sd	s1,40(sp)
     36a:	f04a                	sd	s2,32(sp)
     36c:	ec4e                	sd	s3,24(sp)
     36e:	e852                	sd	s4,16(sp)
     370:	e456                	sd	s5,8(sp)
     372:	e05a                	sd	s6,0(sp)
     374:	0080                	addi	s0,sp,64
  int assumed_free = 600;
  
  unlink("junk");
     376:	00006517          	auipc	a0,0x6
     37a:	15a50513          	addi	a0,a0,346 # 64d0 <malloc+0x21e>
     37e:	00006097          	auipc	ra,0x6
     382:	b4a080e7          	jalr	-1206(ra) # 5ec8 <unlink>
     386:	25800913          	li	s2,600
  for(int i = 0; i < assumed_free; i++){
    int fd = open("junk", O_CREATE|O_WRONLY);
     38a:	20100a93          	li	s5,513
     38e:	00006997          	auipc	s3,0x6
     392:	14298993          	addi	s3,s3,322 # 64d0 <malloc+0x21e>
    if(fd < 0){
      printf("open junk failed\n");
      exit(1);
    }
    write(fd, (char*)0xffffffffffL, 1);
     396:	4b05                	li	s6,1
     398:	5a7d                	li	s4,-1
     39a:	018a5a13          	srli	s4,s4,0x18
    int fd = open("junk", O_CREATE|O_WRONLY);
     39e:	85d6                	mv	a1,s5
     3a0:	854e                	mv	a0,s3
     3a2:	00006097          	auipc	ra,0x6
     3a6:	b16080e7          	jalr	-1258(ra) # 5eb8 <open>
     3aa:	84aa                	mv	s1,a0
    if(fd < 0){
     3ac:	06054b63          	bltz	a0,422 <badwrite+0xc0>
    write(fd, (char*)0xffffffffffL, 1);
     3b0:	865a                	mv	a2,s6
     3b2:	85d2                	mv	a1,s4
     3b4:	00006097          	auipc	ra,0x6
     3b8:	ae4080e7          	jalr	-1308(ra) # 5e98 <write>
    close(fd);
     3bc:	8526                	mv	a0,s1
     3be:	00006097          	auipc	ra,0x6
     3c2:	ae2080e7          	jalr	-1310(ra) # 5ea0 <close>
    unlink("junk");
     3c6:	854e                	mv	a0,s3
     3c8:	00006097          	auipc	ra,0x6
     3cc:	b00080e7          	jalr	-1280(ra) # 5ec8 <unlink>
  for(int i = 0; i < assumed_free; i++){
     3d0:	397d                	addiw	s2,s2,-1
     3d2:	fc0916e3          	bnez	s2,39e <badwrite+0x3c>
  }

  int fd = open("junk", O_CREATE|O_WRONLY);
     3d6:	20100593          	li	a1,513
     3da:	00006517          	auipc	a0,0x6
     3de:	0f650513          	addi	a0,a0,246 # 64d0 <malloc+0x21e>
     3e2:	00006097          	auipc	ra,0x6
     3e6:	ad6080e7          	jalr	-1322(ra) # 5eb8 <open>
     3ea:	84aa                	mv	s1,a0
  if(fd < 0){
     3ec:	04054863          	bltz	a0,43c <badwrite+0xda>
    printf("open junk failed\n");
    exit(1);
  }
  if(write(fd, "x", 1) != 1){
     3f0:	4605                	li	a2,1
     3f2:	00006597          	auipc	a1,0x6
     3f6:	06658593          	addi	a1,a1,102 # 6458 <malloc+0x1a6>
     3fa:	00006097          	auipc	ra,0x6
     3fe:	a9e080e7          	jalr	-1378(ra) # 5e98 <write>
     402:	4785                	li	a5,1
     404:	04f50963          	beq	a0,a5,456 <badwrite+0xf4>
    printf("write failed\n");
     408:	00006517          	auipc	a0,0x6
     40c:	0e850513          	addi	a0,a0,232 # 64f0 <malloc+0x23e>
     410:	00006097          	auipc	ra,0x6
     414:	de6080e7          	jalr	-538(ra) # 61f6 <printf>
    exit(1);
     418:	4505                	li	a0,1
     41a:	00006097          	auipc	ra,0x6
     41e:	a5e080e7          	jalr	-1442(ra) # 5e78 <exit>
      printf("open junk failed\n");
     422:	00006517          	auipc	a0,0x6
     426:	0b650513          	addi	a0,a0,182 # 64d8 <malloc+0x226>
     42a:	00006097          	auipc	ra,0x6
     42e:	dcc080e7          	jalr	-564(ra) # 61f6 <printf>
      exit(1);
     432:	4505                	li	a0,1
     434:	00006097          	auipc	ra,0x6
     438:	a44080e7          	jalr	-1468(ra) # 5e78 <exit>
    printf("open junk failed\n");
     43c:	00006517          	auipc	a0,0x6
     440:	09c50513          	addi	a0,a0,156 # 64d8 <malloc+0x226>
     444:	00006097          	auipc	ra,0x6
     448:	db2080e7          	jalr	-590(ra) # 61f6 <printf>
    exit(1);
     44c:	4505                	li	a0,1
     44e:	00006097          	auipc	ra,0x6
     452:	a2a080e7          	jalr	-1494(ra) # 5e78 <exit>
  }
  close(fd);
     456:	8526                	mv	a0,s1
     458:	00006097          	auipc	ra,0x6
     45c:	a48080e7          	jalr	-1464(ra) # 5ea0 <close>
  unlink("junk");
     460:	00006517          	auipc	a0,0x6
     464:	07050513          	addi	a0,a0,112 # 64d0 <malloc+0x21e>
     468:	00006097          	auipc	ra,0x6
     46c:	a60080e7          	jalr	-1440(ra) # 5ec8 <unlink>

  exit(0);
     470:	4501                	li	a0,0
     472:	00006097          	auipc	ra,0x6
     476:	a06080e7          	jalr	-1530(ra) # 5e78 <exit>

000000000000047a <outofinodes>:
  }
}

void
outofinodes(char *s)
{
     47a:	711d                	addi	sp,sp,-96
     47c:	ec86                	sd	ra,88(sp)
     47e:	e8a2                	sd	s0,80(sp)
     480:	e4a6                	sd	s1,72(sp)
     482:	e0ca                	sd	s2,64(sp)
     484:	fc4e                	sd	s3,56(sp)
     486:	f852                	sd	s4,48(sp)
     488:	f456                	sd	s5,40(sp)
     48a:	1080                	addi	s0,sp,96
  int nzz = 32*32;
  for(int i = 0; i < nzz; i++){
     48c:	4481                	li	s1,0
    char name[32];
    name[0] = 'z';
     48e:	07a00993          	li	s3,122
    name[1] = 'z';
    name[2] = '0' + (i / 32);
    name[3] = '0' + (i % 32);
    name[4] = '\0';
    unlink(name);
     492:	fa040913          	addi	s2,s0,-96
    int fd = open(name, O_CREATE|O_RDWR|O_TRUNC);
     496:	60200a13          	li	s4,1538
  for(int i = 0; i < nzz; i++){
     49a:	40000a93          	li	s5,1024
    name[0] = 'z';
     49e:	fb340023          	sb	s3,-96(s0)
    name[1] = 'z';
     4a2:	fb3400a3          	sb	s3,-95(s0)
    name[2] = '0' + (i / 32);
     4a6:	41f4d71b          	sraiw	a4,s1,0x1f
     4aa:	01b7571b          	srliw	a4,a4,0x1b
     4ae:	009707bb          	addw	a5,a4,s1
     4b2:	4057d69b          	sraiw	a3,a5,0x5
     4b6:	0306869b          	addiw	a3,a3,48
     4ba:	fad40123          	sb	a3,-94(s0)
    name[3] = '0' + (i % 32);
     4be:	8bfd                	andi	a5,a5,31
     4c0:	9f99                	subw	a5,a5,a4
     4c2:	0307879b          	addiw	a5,a5,48
     4c6:	faf401a3          	sb	a5,-93(s0)
    name[4] = '\0';
     4ca:	fa040223          	sb	zero,-92(s0)
    unlink(name);
     4ce:	854a                	mv	a0,s2
     4d0:	00006097          	auipc	ra,0x6
     4d4:	9f8080e7          	jalr	-1544(ra) # 5ec8 <unlink>
    int fd = open(name, O_CREATE|O_RDWR|O_TRUNC);
     4d8:	85d2                	mv	a1,s4
     4da:	854a                	mv	a0,s2
     4dc:	00006097          	auipc	ra,0x6
     4e0:	9dc080e7          	jalr	-1572(ra) # 5eb8 <open>
    if(fd < 0){
     4e4:	00054963          	bltz	a0,4f6 <outofinodes+0x7c>
      // failure is eventually expected.
      break;
    }
    close(fd);
     4e8:	00006097          	auipc	ra,0x6
     4ec:	9b8080e7          	jalr	-1608(ra) # 5ea0 <close>
  for(int i = 0; i < nzz; i++){
     4f0:	2485                	addiw	s1,s1,1
     4f2:	fb5496e3          	bne	s1,s5,49e <outofinodes+0x24>
     4f6:	4481                	li	s1,0
  }

  for(int i = 0; i < nzz; i++){
    char name[32];
    name[0] = 'z';
     4f8:	07a00913          	li	s2,122
    name[1] = 'z';
    name[2] = '0' + (i / 32);
    name[3] = '0' + (i % 32);
    name[4] = '\0';
    unlink(name);
     4fc:	fa040a13          	addi	s4,s0,-96
  for(int i = 0; i < nzz; i++){
     500:	40000993          	li	s3,1024
    name[0] = 'z';
     504:	fb240023          	sb	s2,-96(s0)
    name[1] = 'z';
     508:	fb2400a3          	sb	s2,-95(s0)
    name[2] = '0' + (i / 32);
     50c:	41f4d71b          	sraiw	a4,s1,0x1f
     510:	01b7571b          	srliw	a4,a4,0x1b
     514:	009707bb          	addw	a5,a4,s1
     518:	4057d69b          	sraiw	a3,a5,0x5
     51c:	0306869b          	addiw	a3,a3,48
     520:	fad40123          	sb	a3,-94(s0)
    name[3] = '0' + (i % 32);
     524:	8bfd                	andi	a5,a5,31
     526:	9f99                	subw	a5,a5,a4
     528:	0307879b          	addiw	a5,a5,48
     52c:	faf401a3          	sb	a5,-93(s0)
    name[4] = '\0';
     530:	fa040223          	sb	zero,-92(s0)
    unlink(name);
     534:	8552                	mv	a0,s4
     536:	00006097          	auipc	ra,0x6
     53a:	992080e7          	jalr	-1646(ra) # 5ec8 <unlink>
  for(int i = 0; i < nzz; i++){
     53e:	2485                	addiw	s1,s1,1
     540:	fd3492e3          	bne	s1,s3,504 <outofinodes+0x8a>
  }
}
     544:	60e6                	ld	ra,88(sp)
     546:	6446                	ld	s0,80(sp)
     548:	64a6                	ld	s1,72(sp)
     54a:	6906                	ld	s2,64(sp)
     54c:	79e2                	ld	s3,56(sp)
     54e:	7a42                	ld	s4,48(sp)
     550:	7aa2                	ld	s5,40(sp)
     552:	6125                	addi	sp,sp,96
     554:	8082                	ret

0000000000000556 <copyin>:
{
     556:	7159                	addi	sp,sp,-112
     558:	f486                	sd	ra,104(sp)
     55a:	f0a2                	sd	s0,96(sp)
     55c:	eca6                	sd	s1,88(sp)
     55e:	e8ca                	sd	s2,80(sp)
     560:	e4ce                	sd	s3,72(sp)
     562:	e0d2                	sd	s4,64(sp)
     564:	fc56                	sd	s5,56(sp)
     566:	f85a                	sd	s6,48(sp)
     568:	f45e                	sd	s7,40(sp)
     56a:	f062                	sd	s8,32(sp)
     56c:	1880                	addi	s0,sp,112
  uint64 addrs[] = { 0x80000000LL, 0xffffffffffffffff };
     56e:	4785                	li	a5,1
     570:	07fe                	slli	a5,a5,0x1f
     572:	faf43023          	sd	a5,-96(s0)
     576:	57fd                	li	a5,-1
     578:	faf43423          	sd	a5,-88(s0)
  for(int ai = 0; ai < 2; ai++){
     57c:	fa040913          	addi	s2,s0,-96
    int fd = open("copyin1", O_CREATE|O_WRONLY);
     580:	20100b93          	li	s7,513
     584:	00006a97          	auipc	s5,0x6
     588:	f7ca8a93          	addi	s5,s5,-132 # 6500 <malloc+0x24e>
    int n = write(fd, (void*)addr, 8192);
     58c:	6a09                	lui	s4,0x2
    n = write(1, (char*)addr, 8192);
     58e:	4b05                	li	s6,1
    if(pipe(fds) < 0){
     590:	f9840c13          	addi	s8,s0,-104
    uint64 addr = addrs[ai];
     594:	00093983          	ld	s3,0(s2)
    int fd = open("copyin1", O_CREATE|O_WRONLY);
     598:	85de                	mv	a1,s7
     59a:	8556                	mv	a0,s5
     59c:	00006097          	auipc	ra,0x6
     5a0:	91c080e7          	jalr	-1764(ra) # 5eb8 <open>
     5a4:	84aa                	mv	s1,a0
    if(fd < 0){
     5a6:	08054b63          	bltz	a0,63c <copyin+0xe6>
    int n = write(fd, (void*)addr, 8192);
     5aa:	8652                	mv	a2,s4
     5ac:	85ce                	mv	a1,s3
     5ae:	00006097          	auipc	ra,0x6
     5b2:	8ea080e7          	jalr	-1814(ra) # 5e98 <write>
    if(n >= 0){
     5b6:	0a055063          	bgez	a0,656 <copyin+0x100>
    close(fd);
     5ba:	8526                	mv	a0,s1
     5bc:	00006097          	auipc	ra,0x6
     5c0:	8e4080e7          	jalr	-1820(ra) # 5ea0 <close>
    unlink("copyin1");
     5c4:	8556                	mv	a0,s5
     5c6:	00006097          	auipc	ra,0x6
     5ca:	902080e7          	jalr	-1790(ra) # 5ec8 <unlink>
    n = write(1, (char*)addr, 8192);
     5ce:	8652                	mv	a2,s4
     5d0:	85ce                	mv	a1,s3
     5d2:	855a                	mv	a0,s6
     5d4:	00006097          	auipc	ra,0x6
     5d8:	8c4080e7          	jalr	-1852(ra) # 5e98 <write>
    if(n > 0){
     5dc:	08a04c63          	bgtz	a0,674 <copyin+0x11e>
    if(pipe(fds) < 0){
     5e0:	8562                	mv	a0,s8
     5e2:	00006097          	auipc	ra,0x6
     5e6:	8a6080e7          	jalr	-1882(ra) # 5e88 <pipe>
     5ea:	0a054463          	bltz	a0,692 <copyin+0x13c>
    n = write(fds[1], (char*)addr, 8192);
     5ee:	8652                	mv	a2,s4
     5f0:	85ce                	mv	a1,s3
     5f2:	f9c42503          	lw	a0,-100(s0)
     5f6:	00006097          	auipc	ra,0x6
     5fa:	8a2080e7          	jalr	-1886(ra) # 5e98 <write>
    if(n > 0){
     5fe:	0aa04763          	bgtz	a0,6ac <copyin+0x156>
    close(fds[0]);
     602:	f9842503          	lw	a0,-104(s0)
     606:	00006097          	auipc	ra,0x6
     60a:	89a080e7          	jalr	-1894(ra) # 5ea0 <close>
    close(fds[1]);
     60e:	f9c42503          	lw	a0,-100(s0)
     612:	00006097          	auipc	ra,0x6
     616:	88e080e7          	jalr	-1906(ra) # 5ea0 <close>
  for(int ai = 0; ai < 2; ai++){
     61a:	0921                	addi	s2,s2,8
     61c:	fb040793          	addi	a5,s0,-80
     620:	f6f91ae3          	bne	s2,a5,594 <copyin+0x3e>
}
     624:	70a6                	ld	ra,104(sp)
     626:	7406                	ld	s0,96(sp)
     628:	64e6                	ld	s1,88(sp)
     62a:	6946                	ld	s2,80(sp)
     62c:	69a6                	ld	s3,72(sp)
     62e:	6a06                	ld	s4,64(sp)
     630:	7ae2                	ld	s5,56(sp)
     632:	7b42                	ld	s6,48(sp)
     634:	7ba2                	ld	s7,40(sp)
     636:	7c02                	ld	s8,32(sp)
     638:	6165                	addi	sp,sp,112
     63a:	8082                	ret
      printf("open(copyin1) failed\n");
     63c:	00006517          	auipc	a0,0x6
     640:	ecc50513          	addi	a0,a0,-308 # 6508 <malloc+0x256>
     644:	00006097          	auipc	ra,0x6
     648:	bb2080e7          	jalr	-1102(ra) # 61f6 <printf>
      exit(1);
     64c:	4505                	li	a0,1
     64e:	00006097          	auipc	ra,0x6
     652:	82a080e7          	jalr	-2006(ra) # 5e78 <exit>
      printf("write(fd, %p, 8192) returned %d, not -1\n", addr, n);
     656:	862a                	mv	a2,a0
     658:	85ce                	mv	a1,s3
     65a:	00006517          	auipc	a0,0x6
     65e:	ec650513          	addi	a0,a0,-314 # 6520 <malloc+0x26e>
     662:	00006097          	auipc	ra,0x6
     666:	b94080e7          	jalr	-1132(ra) # 61f6 <printf>
      exit(1);
     66a:	4505                	li	a0,1
     66c:	00006097          	auipc	ra,0x6
     670:	80c080e7          	jalr	-2036(ra) # 5e78 <exit>
      printf("write(1, %p, 8192) returned %d, not -1 or 0\n", addr, n);
     674:	862a                	mv	a2,a0
     676:	85ce                	mv	a1,s3
     678:	00006517          	auipc	a0,0x6
     67c:	ed850513          	addi	a0,a0,-296 # 6550 <malloc+0x29e>
     680:	00006097          	auipc	ra,0x6
     684:	b76080e7          	jalr	-1162(ra) # 61f6 <printf>
      exit(1);
     688:	4505                	li	a0,1
     68a:	00005097          	auipc	ra,0x5
     68e:	7ee080e7          	jalr	2030(ra) # 5e78 <exit>
      printf("pipe() failed\n");
     692:	00006517          	auipc	a0,0x6
     696:	eee50513          	addi	a0,a0,-274 # 6580 <malloc+0x2ce>
     69a:	00006097          	auipc	ra,0x6
     69e:	b5c080e7          	jalr	-1188(ra) # 61f6 <printf>
      exit(1);
     6a2:	4505                	li	a0,1
     6a4:	00005097          	auipc	ra,0x5
     6a8:	7d4080e7          	jalr	2004(ra) # 5e78 <exit>
      printf("write(pipe, %p, 8192) returned %d, not -1 or 0\n", addr, n);
     6ac:	862a                	mv	a2,a0
     6ae:	85ce                	mv	a1,s3
     6b0:	00006517          	auipc	a0,0x6
     6b4:	ee050513          	addi	a0,a0,-288 # 6590 <malloc+0x2de>
     6b8:	00006097          	auipc	ra,0x6
     6bc:	b3e080e7          	jalr	-1218(ra) # 61f6 <printf>
      exit(1);
     6c0:	4505                	li	a0,1
     6c2:	00005097          	auipc	ra,0x5
     6c6:	7b6080e7          	jalr	1974(ra) # 5e78 <exit>

00000000000006ca <copyout>:
{
     6ca:	7159                	addi	sp,sp,-112
     6cc:	f486                	sd	ra,104(sp)
     6ce:	f0a2                	sd	s0,96(sp)
     6d0:	eca6                	sd	s1,88(sp)
     6d2:	e8ca                	sd	s2,80(sp)
     6d4:	e4ce                	sd	s3,72(sp)
     6d6:	e0d2                	sd	s4,64(sp)
     6d8:	fc56                	sd	s5,56(sp)
     6da:	f85a                	sd	s6,48(sp)
     6dc:	f45e                	sd	s7,40(sp)
     6de:	f062                	sd	s8,32(sp)
     6e0:	1880                	addi	s0,sp,112
  uint64 addrs[] = { 0x80000000LL, 0xffffffffffffffff };
     6e2:	4785                	li	a5,1
     6e4:	07fe                	slli	a5,a5,0x1f
     6e6:	faf43023          	sd	a5,-96(s0)
     6ea:	57fd                	li	a5,-1
     6ec:	faf43423          	sd	a5,-88(s0)
  for(int ai = 0; ai < 2; ai++){
     6f0:	fa040913          	addi	s2,s0,-96
    int fd = open("README", 0);
     6f4:	00006b97          	auipc	s7,0x6
     6f8:	eccb8b93          	addi	s7,s7,-308 # 65c0 <malloc+0x30e>
    int n = read(fd, (void*)addr, 8192);
     6fc:	6a09                	lui	s4,0x2
    if(pipe(fds) < 0){
     6fe:	f9840b13          	addi	s6,s0,-104
    n = write(fds[1], "x", 1);
     702:	4a85                	li	s5,1
     704:	00006c17          	auipc	s8,0x6
     708:	d54c0c13          	addi	s8,s8,-684 # 6458 <malloc+0x1a6>
    uint64 addr = addrs[ai];
     70c:	00093983          	ld	s3,0(s2)
    int fd = open("README", 0);
     710:	4581                	li	a1,0
     712:	855e                	mv	a0,s7
     714:	00005097          	auipc	ra,0x5
     718:	7a4080e7          	jalr	1956(ra) # 5eb8 <open>
     71c:	84aa                	mv	s1,a0
    if(fd < 0){
     71e:	08054763          	bltz	a0,7ac <copyout+0xe2>
    int n = read(fd, (void*)addr, 8192);
     722:	8652                	mv	a2,s4
     724:	85ce                	mv	a1,s3
     726:	00005097          	auipc	ra,0x5
     72a:	76a080e7          	jalr	1898(ra) # 5e90 <read>
    if(n > 0){
     72e:	08a04c63          	bgtz	a0,7c6 <copyout+0xfc>
    close(fd);
     732:	8526                	mv	a0,s1
     734:	00005097          	auipc	ra,0x5
     738:	76c080e7          	jalr	1900(ra) # 5ea0 <close>
    if(pipe(fds) < 0){
     73c:	855a                	mv	a0,s6
     73e:	00005097          	auipc	ra,0x5
     742:	74a080e7          	jalr	1866(ra) # 5e88 <pipe>
     746:	08054f63          	bltz	a0,7e4 <copyout+0x11a>
    n = write(fds[1], "x", 1);
     74a:	8656                	mv	a2,s5
     74c:	85e2                	mv	a1,s8
     74e:	f9c42503          	lw	a0,-100(s0)
     752:	00005097          	auipc	ra,0x5
     756:	746080e7          	jalr	1862(ra) # 5e98 <write>
    if(n != 1){
     75a:	0b551263          	bne	a0,s5,7fe <copyout+0x134>
    n = read(fds[0], (void*)addr, 8192);
     75e:	8652                	mv	a2,s4
     760:	85ce                	mv	a1,s3
     762:	f9842503          	lw	a0,-104(s0)
     766:	00005097          	auipc	ra,0x5
     76a:	72a080e7          	jalr	1834(ra) # 5e90 <read>
    if(n > 0){
     76e:	0aa04563          	bgtz	a0,818 <copyout+0x14e>
    close(fds[0]);
     772:	f9842503          	lw	a0,-104(s0)
     776:	00005097          	auipc	ra,0x5
     77a:	72a080e7          	jalr	1834(ra) # 5ea0 <close>
    close(fds[1]);
     77e:	f9c42503          	lw	a0,-100(s0)
     782:	00005097          	auipc	ra,0x5
     786:	71e080e7          	jalr	1822(ra) # 5ea0 <close>
  for(int ai = 0; ai < 2; ai++){
     78a:	0921                	addi	s2,s2,8
     78c:	fb040793          	addi	a5,s0,-80
     790:	f6f91ee3          	bne	s2,a5,70c <copyout+0x42>
}
     794:	70a6                	ld	ra,104(sp)
     796:	7406                	ld	s0,96(sp)
     798:	64e6                	ld	s1,88(sp)
     79a:	6946                	ld	s2,80(sp)
     79c:	69a6                	ld	s3,72(sp)
     79e:	6a06                	ld	s4,64(sp)
     7a0:	7ae2                	ld	s5,56(sp)
     7a2:	7b42                	ld	s6,48(sp)
     7a4:	7ba2                	ld	s7,40(sp)
     7a6:	7c02                	ld	s8,32(sp)
     7a8:	6165                	addi	sp,sp,112
     7aa:	8082                	ret
      printf("open(README) failed\n");
     7ac:	00006517          	auipc	a0,0x6
     7b0:	e1c50513          	addi	a0,a0,-484 # 65c8 <malloc+0x316>
     7b4:	00006097          	auipc	ra,0x6
     7b8:	a42080e7          	jalr	-1470(ra) # 61f6 <printf>
      exit(1);
     7bc:	4505                	li	a0,1
     7be:	00005097          	auipc	ra,0x5
     7c2:	6ba080e7          	jalr	1722(ra) # 5e78 <exit>
      printf("read(fd, %p, 8192) returned %d, not -1 or 0\n", addr, n);
     7c6:	862a                	mv	a2,a0
     7c8:	85ce                	mv	a1,s3
     7ca:	00006517          	auipc	a0,0x6
     7ce:	e1650513          	addi	a0,a0,-490 # 65e0 <malloc+0x32e>
     7d2:	00006097          	auipc	ra,0x6
     7d6:	a24080e7          	jalr	-1500(ra) # 61f6 <printf>
      exit(1);
     7da:	4505                	li	a0,1
     7dc:	00005097          	auipc	ra,0x5
     7e0:	69c080e7          	jalr	1692(ra) # 5e78 <exit>
      printf("pipe() failed\n");
     7e4:	00006517          	auipc	a0,0x6
     7e8:	d9c50513          	addi	a0,a0,-612 # 6580 <malloc+0x2ce>
     7ec:	00006097          	auipc	ra,0x6
     7f0:	a0a080e7          	jalr	-1526(ra) # 61f6 <printf>
      exit(1);
     7f4:	4505                	li	a0,1
     7f6:	00005097          	auipc	ra,0x5
     7fa:	682080e7          	jalr	1666(ra) # 5e78 <exit>
      printf("pipe write failed\n");
     7fe:	00006517          	auipc	a0,0x6
     802:	e1250513          	addi	a0,a0,-494 # 6610 <malloc+0x35e>
     806:	00006097          	auipc	ra,0x6
     80a:	9f0080e7          	jalr	-1552(ra) # 61f6 <printf>
      exit(1);
     80e:	4505                	li	a0,1
     810:	00005097          	auipc	ra,0x5
     814:	668080e7          	jalr	1640(ra) # 5e78 <exit>
      printf("read(pipe, %p, 8192) returned %d, not -1 or 0\n", addr, n);
     818:	862a                	mv	a2,a0
     81a:	85ce                	mv	a1,s3
     81c:	00006517          	auipc	a0,0x6
     820:	e0c50513          	addi	a0,a0,-500 # 6628 <malloc+0x376>
     824:	00006097          	auipc	ra,0x6
     828:	9d2080e7          	jalr	-1582(ra) # 61f6 <printf>
      exit(1);
     82c:	4505                	li	a0,1
     82e:	00005097          	auipc	ra,0x5
     832:	64a080e7          	jalr	1610(ra) # 5e78 <exit>

0000000000000836 <truncate1>:
{
     836:	711d                	addi	sp,sp,-96
     838:	ec86                	sd	ra,88(sp)
     83a:	e8a2                	sd	s0,80(sp)
     83c:	e4a6                	sd	s1,72(sp)
     83e:	e0ca                	sd	s2,64(sp)
     840:	fc4e                	sd	s3,56(sp)
     842:	f852                	sd	s4,48(sp)
     844:	f456                	sd	s5,40(sp)
     846:	1080                	addi	s0,sp,96
     848:	8aaa                	mv	s5,a0
  unlink("truncfile");
     84a:	00006517          	auipc	a0,0x6
     84e:	bf650513          	addi	a0,a0,-1034 # 6440 <malloc+0x18e>
     852:	00005097          	auipc	ra,0x5
     856:	676080e7          	jalr	1654(ra) # 5ec8 <unlink>
  int fd1 = open("truncfile", O_CREATE|O_WRONLY|O_TRUNC);
     85a:	60100593          	li	a1,1537
     85e:	00006517          	auipc	a0,0x6
     862:	be250513          	addi	a0,a0,-1054 # 6440 <malloc+0x18e>
     866:	00005097          	auipc	ra,0x5
     86a:	652080e7          	jalr	1618(ra) # 5eb8 <open>
     86e:	84aa                	mv	s1,a0
  write(fd1, "abcd", 4);
     870:	4611                	li	a2,4
     872:	00006597          	auipc	a1,0x6
     876:	bde58593          	addi	a1,a1,-1058 # 6450 <malloc+0x19e>
     87a:	00005097          	auipc	ra,0x5
     87e:	61e080e7          	jalr	1566(ra) # 5e98 <write>
  close(fd1);
     882:	8526                	mv	a0,s1
     884:	00005097          	auipc	ra,0x5
     888:	61c080e7          	jalr	1564(ra) # 5ea0 <close>
  int fd2 = open("truncfile", O_RDONLY);
     88c:	4581                	li	a1,0
     88e:	00006517          	auipc	a0,0x6
     892:	bb250513          	addi	a0,a0,-1102 # 6440 <malloc+0x18e>
     896:	00005097          	auipc	ra,0x5
     89a:	622080e7          	jalr	1570(ra) # 5eb8 <open>
     89e:	84aa                	mv	s1,a0
  int n = read(fd2, buf, sizeof(buf));
     8a0:	02000613          	li	a2,32
     8a4:	fa040593          	addi	a1,s0,-96
     8a8:	00005097          	auipc	ra,0x5
     8ac:	5e8080e7          	jalr	1512(ra) # 5e90 <read>
  if(n != 4){
     8b0:	4791                	li	a5,4
     8b2:	0cf51e63          	bne	a0,a5,98e <truncate1+0x158>
  fd1 = open("truncfile", O_WRONLY|O_TRUNC);
     8b6:	40100593          	li	a1,1025
     8ba:	00006517          	auipc	a0,0x6
     8be:	b8650513          	addi	a0,a0,-1146 # 6440 <malloc+0x18e>
     8c2:	00005097          	auipc	ra,0x5
     8c6:	5f6080e7          	jalr	1526(ra) # 5eb8 <open>
     8ca:	89aa                	mv	s3,a0
  int fd3 = open("truncfile", O_RDONLY);
     8cc:	4581                	li	a1,0
     8ce:	00006517          	auipc	a0,0x6
     8d2:	b7250513          	addi	a0,a0,-1166 # 6440 <malloc+0x18e>
     8d6:	00005097          	auipc	ra,0x5
     8da:	5e2080e7          	jalr	1506(ra) # 5eb8 <open>
     8de:	892a                	mv	s2,a0
  n = read(fd3, buf, sizeof(buf));
     8e0:	02000613          	li	a2,32
     8e4:	fa040593          	addi	a1,s0,-96
     8e8:	00005097          	auipc	ra,0x5
     8ec:	5a8080e7          	jalr	1448(ra) # 5e90 <read>
     8f0:	8a2a                	mv	s4,a0
  if(n != 0){
     8f2:	ed4d                	bnez	a0,9ac <truncate1+0x176>
  n = read(fd2, buf, sizeof(buf));
     8f4:	02000613          	li	a2,32
     8f8:	fa040593          	addi	a1,s0,-96
     8fc:	8526                	mv	a0,s1
     8fe:	00005097          	auipc	ra,0x5
     902:	592080e7          	jalr	1426(ra) # 5e90 <read>
     906:	8a2a                	mv	s4,a0
  if(n != 0){
     908:	e971                	bnez	a0,9dc <truncate1+0x1a6>
  write(fd1, "abcdef", 6);
     90a:	4619                	li	a2,6
     90c:	00006597          	auipc	a1,0x6
     910:	dac58593          	addi	a1,a1,-596 # 66b8 <malloc+0x406>
     914:	854e                	mv	a0,s3
     916:	00005097          	auipc	ra,0x5
     91a:	582080e7          	jalr	1410(ra) # 5e98 <write>
  n = read(fd3, buf, sizeof(buf));
     91e:	02000613          	li	a2,32
     922:	fa040593          	addi	a1,s0,-96
     926:	854a                	mv	a0,s2
     928:	00005097          	auipc	ra,0x5
     92c:	568080e7          	jalr	1384(ra) # 5e90 <read>
  if(n != 6){
     930:	4799                	li	a5,6
     932:	0cf51d63          	bne	a0,a5,a0c <truncate1+0x1d6>
  n = read(fd2, buf, sizeof(buf));
     936:	02000613          	li	a2,32
     93a:	fa040593          	addi	a1,s0,-96
     93e:	8526                	mv	a0,s1
     940:	00005097          	auipc	ra,0x5
     944:	550080e7          	jalr	1360(ra) # 5e90 <read>
  if(n != 2){
     948:	4789                	li	a5,2
     94a:	0ef51063          	bne	a0,a5,a2a <truncate1+0x1f4>
  unlink("truncfile");
     94e:	00006517          	auipc	a0,0x6
     952:	af250513          	addi	a0,a0,-1294 # 6440 <malloc+0x18e>
     956:	00005097          	auipc	ra,0x5
     95a:	572080e7          	jalr	1394(ra) # 5ec8 <unlink>
  close(fd1);
     95e:	854e                	mv	a0,s3
     960:	00005097          	auipc	ra,0x5
     964:	540080e7          	jalr	1344(ra) # 5ea0 <close>
  close(fd2);
     968:	8526                	mv	a0,s1
     96a:	00005097          	auipc	ra,0x5
     96e:	536080e7          	jalr	1334(ra) # 5ea0 <close>
  close(fd3);
     972:	854a                	mv	a0,s2
     974:	00005097          	auipc	ra,0x5
     978:	52c080e7          	jalr	1324(ra) # 5ea0 <close>
}
     97c:	60e6                	ld	ra,88(sp)
     97e:	6446                	ld	s0,80(sp)
     980:	64a6                	ld	s1,72(sp)
     982:	6906                	ld	s2,64(sp)
     984:	79e2                	ld	s3,56(sp)
     986:	7a42                	ld	s4,48(sp)
     988:	7aa2                	ld	s5,40(sp)
     98a:	6125                	addi	sp,sp,96
     98c:	8082                	ret
    printf("%s: read %d bytes, wanted 4\n", s, n);
     98e:	862a                	mv	a2,a0
     990:	85d6                	mv	a1,s5
     992:	00006517          	auipc	a0,0x6
     996:	cc650513          	addi	a0,a0,-826 # 6658 <malloc+0x3a6>
     99a:	00006097          	auipc	ra,0x6
     99e:	85c080e7          	jalr	-1956(ra) # 61f6 <printf>
    exit(1);
     9a2:	4505                	li	a0,1
     9a4:	00005097          	auipc	ra,0x5
     9a8:	4d4080e7          	jalr	1236(ra) # 5e78 <exit>
    printf("aaa fd3=%d\n", fd3);
     9ac:	85ca                	mv	a1,s2
     9ae:	00006517          	auipc	a0,0x6
     9b2:	cca50513          	addi	a0,a0,-822 # 6678 <malloc+0x3c6>
     9b6:	00006097          	auipc	ra,0x6
     9ba:	840080e7          	jalr	-1984(ra) # 61f6 <printf>
    printf("%s: read %d bytes, wanted 0\n", s, n);
     9be:	8652                	mv	a2,s4
     9c0:	85d6                	mv	a1,s5
     9c2:	00006517          	auipc	a0,0x6
     9c6:	cc650513          	addi	a0,a0,-826 # 6688 <malloc+0x3d6>
     9ca:	00006097          	auipc	ra,0x6
     9ce:	82c080e7          	jalr	-2004(ra) # 61f6 <printf>
    exit(1);
     9d2:	4505                	li	a0,1
     9d4:	00005097          	auipc	ra,0x5
     9d8:	4a4080e7          	jalr	1188(ra) # 5e78 <exit>
    printf("bbb fd2=%d\n", fd2);
     9dc:	85a6                	mv	a1,s1
     9de:	00006517          	auipc	a0,0x6
     9e2:	cca50513          	addi	a0,a0,-822 # 66a8 <malloc+0x3f6>
     9e6:	00006097          	auipc	ra,0x6
     9ea:	810080e7          	jalr	-2032(ra) # 61f6 <printf>
    printf("%s: read %d bytes, wanted 0\n", s, n);
     9ee:	8652                	mv	a2,s4
     9f0:	85d6                	mv	a1,s5
     9f2:	00006517          	auipc	a0,0x6
     9f6:	c9650513          	addi	a0,a0,-874 # 6688 <malloc+0x3d6>
     9fa:	00005097          	auipc	ra,0x5
     9fe:	7fc080e7          	jalr	2044(ra) # 61f6 <printf>
    exit(1);
     a02:	4505                	li	a0,1
     a04:	00005097          	auipc	ra,0x5
     a08:	474080e7          	jalr	1140(ra) # 5e78 <exit>
    printf("%s: read %d bytes, wanted 6\n", s, n);
     a0c:	862a                	mv	a2,a0
     a0e:	85d6                	mv	a1,s5
     a10:	00006517          	auipc	a0,0x6
     a14:	cb050513          	addi	a0,a0,-848 # 66c0 <malloc+0x40e>
     a18:	00005097          	auipc	ra,0x5
     a1c:	7de080e7          	jalr	2014(ra) # 61f6 <printf>
    exit(1);
     a20:	4505                	li	a0,1
     a22:	00005097          	auipc	ra,0x5
     a26:	456080e7          	jalr	1110(ra) # 5e78 <exit>
    printf("%s: read %d bytes, wanted 2\n", s, n);
     a2a:	862a                	mv	a2,a0
     a2c:	85d6                	mv	a1,s5
     a2e:	00006517          	auipc	a0,0x6
     a32:	cb250513          	addi	a0,a0,-846 # 66e0 <malloc+0x42e>
     a36:	00005097          	auipc	ra,0x5
     a3a:	7c0080e7          	jalr	1984(ra) # 61f6 <printf>
    exit(1);
     a3e:	4505                	li	a0,1
     a40:	00005097          	auipc	ra,0x5
     a44:	438080e7          	jalr	1080(ra) # 5e78 <exit>

0000000000000a48 <writetest>:
{
     a48:	715d                	addi	sp,sp,-80
     a4a:	e486                	sd	ra,72(sp)
     a4c:	e0a2                	sd	s0,64(sp)
     a4e:	fc26                	sd	s1,56(sp)
     a50:	f84a                	sd	s2,48(sp)
     a52:	f44e                	sd	s3,40(sp)
     a54:	f052                	sd	s4,32(sp)
     a56:	ec56                	sd	s5,24(sp)
     a58:	e85a                	sd	s6,16(sp)
     a5a:	e45e                	sd	s7,8(sp)
     a5c:	0880                	addi	s0,sp,80
     a5e:	8baa                	mv	s7,a0
  fd = open("small", O_CREATE|O_RDWR);
     a60:	20200593          	li	a1,514
     a64:	00006517          	auipc	a0,0x6
     a68:	c9c50513          	addi	a0,a0,-868 # 6700 <malloc+0x44e>
     a6c:	00005097          	auipc	ra,0x5
     a70:	44c080e7          	jalr	1100(ra) # 5eb8 <open>
  if(fd < 0){
     a74:	0a054d63          	bltz	a0,b2e <writetest+0xe6>
     a78:	89aa                	mv	s3,a0
     a7a:	4901                	li	s2,0
    if(write(fd, "aaaaaaaaaa", SZ) != SZ){
     a7c:	44a9                	li	s1,10
     a7e:	00006a17          	auipc	s4,0x6
     a82:	caaa0a13          	addi	s4,s4,-854 # 6728 <malloc+0x476>
    if(write(fd, "bbbbbbbbbb", SZ) != SZ){
     a86:	00006b17          	auipc	s6,0x6
     a8a:	cdab0b13          	addi	s6,s6,-806 # 6760 <malloc+0x4ae>
  for(i = 0; i < N; i++){
     a8e:	06400a93          	li	s5,100
    if(write(fd, "aaaaaaaaaa", SZ) != SZ){
     a92:	8626                	mv	a2,s1
     a94:	85d2                	mv	a1,s4
     a96:	854e                	mv	a0,s3
     a98:	00005097          	auipc	ra,0x5
     a9c:	400080e7          	jalr	1024(ra) # 5e98 <write>
     aa0:	0a951563          	bne	a0,s1,b4a <writetest+0x102>
    if(write(fd, "bbbbbbbbbb", SZ) != SZ){
     aa4:	8626                	mv	a2,s1
     aa6:	85da                	mv	a1,s6
     aa8:	854e                	mv	a0,s3
     aaa:	00005097          	auipc	ra,0x5
     aae:	3ee080e7          	jalr	1006(ra) # 5e98 <write>
     ab2:	0a951b63          	bne	a0,s1,b68 <writetest+0x120>
  for(i = 0; i < N; i++){
     ab6:	2905                	addiw	s2,s2,1
     ab8:	fd591de3          	bne	s2,s5,a92 <writetest+0x4a>
  close(fd);
     abc:	854e                	mv	a0,s3
     abe:	00005097          	auipc	ra,0x5
     ac2:	3e2080e7          	jalr	994(ra) # 5ea0 <close>
  fd = open("small", O_RDONLY);
     ac6:	4581                	li	a1,0
     ac8:	00006517          	auipc	a0,0x6
     acc:	c3850513          	addi	a0,a0,-968 # 6700 <malloc+0x44e>
     ad0:	00005097          	auipc	ra,0x5
     ad4:	3e8080e7          	jalr	1000(ra) # 5eb8 <open>
     ad8:	84aa                	mv	s1,a0
  if(fd < 0){
     ada:	0a054663          	bltz	a0,b86 <writetest+0x13e>
  i = read(fd, buf, N*SZ*2);
     ade:	7d000613          	li	a2,2000
     ae2:	0000c597          	auipc	a1,0xc
     ae6:	19658593          	addi	a1,a1,406 # cc78 <buf>
     aea:	00005097          	auipc	ra,0x5
     aee:	3a6080e7          	jalr	934(ra) # 5e90 <read>
  if(i != N*SZ*2){
     af2:	7d000793          	li	a5,2000
     af6:	0af51663          	bne	a0,a5,ba2 <writetest+0x15a>
  close(fd);
     afa:	8526                	mv	a0,s1
     afc:	00005097          	auipc	ra,0x5
     b00:	3a4080e7          	jalr	932(ra) # 5ea0 <close>
  if(unlink("small") < 0){
     b04:	00006517          	auipc	a0,0x6
     b08:	bfc50513          	addi	a0,a0,-1028 # 6700 <malloc+0x44e>
     b0c:	00005097          	auipc	ra,0x5
     b10:	3bc080e7          	jalr	956(ra) # 5ec8 <unlink>
     b14:	0a054563          	bltz	a0,bbe <writetest+0x176>
}
     b18:	60a6                	ld	ra,72(sp)
     b1a:	6406                	ld	s0,64(sp)
     b1c:	74e2                	ld	s1,56(sp)
     b1e:	7942                	ld	s2,48(sp)
     b20:	79a2                	ld	s3,40(sp)
     b22:	7a02                	ld	s4,32(sp)
     b24:	6ae2                	ld	s5,24(sp)
     b26:	6b42                	ld	s6,16(sp)
     b28:	6ba2                	ld	s7,8(sp)
     b2a:	6161                	addi	sp,sp,80
     b2c:	8082                	ret
    printf("%s: error: creat small failed!\n", s);
     b2e:	85de                	mv	a1,s7
     b30:	00006517          	auipc	a0,0x6
     b34:	bd850513          	addi	a0,a0,-1064 # 6708 <malloc+0x456>
     b38:	00005097          	auipc	ra,0x5
     b3c:	6be080e7          	jalr	1726(ra) # 61f6 <printf>
    exit(1);
     b40:	4505                	li	a0,1
     b42:	00005097          	auipc	ra,0x5
     b46:	336080e7          	jalr	822(ra) # 5e78 <exit>
      printf("%s: error: write aa %d new file failed\n", s, i);
     b4a:	864a                	mv	a2,s2
     b4c:	85de                	mv	a1,s7
     b4e:	00006517          	auipc	a0,0x6
     b52:	bea50513          	addi	a0,a0,-1046 # 6738 <malloc+0x486>
     b56:	00005097          	auipc	ra,0x5
     b5a:	6a0080e7          	jalr	1696(ra) # 61f6 <printf>
      exit(1);
     b5e:	4505                	li	a0,1
     b60:	00005097          	auipc	ra,0x5
     b64:	318080e7          	jalr	792(ra) # 5e78 <exit>
      printf("%s: error: write bb %d new file failed\n", s, i);
     b68:	864a                	mv	a2,s2
     b6a:	85de                	mv	a1,s7
     b6c:	00006517          	auipc	a0,0x6
     b70:	c0450513          	addi	a0,a0,-1020 # 6770 <malloc+0x4be>
     b74:	00005097          	auipc	ra,0x5
     b78:	682080e7          	jalr	1666(ra) # 61f6 <printf>
      exit(1);
     b7c:	4505                	li	a0,1
     b7e:	00005097          	auipc	ra,0x5
     b82:	2fa080e7          	jalr	762(ra) # 5e78 <exit>
    printf("%s: error: open small failed!\n", s);
     b86:	85de                	mv	a1,s7
     b88:	00006517          	auipc	a0,0x6
     b8c:	c1050513          	addi	a0,a0,-1008 # 6798 <malloc+0x4e6>
     b90:	00005097          	auipc	ra,0x5
     b94:	666080e7          	jalr	1638(ra) # 61f6 <printf>
    exit(1);
     b98:	4505                	li	a0,1
     b9a:	00005097          	auipc	ra,0x5
     b9e:	2de080e7          	jalr	734(ra) # 5e78 <exit>
    printf("%s: read failed\n", s);
     ba2:	85de                	mv	a1,s7
     ba4:	00006517          	auipc	a0,0x6
     ba8:	c1450513          	addi	a0,a0,-1004 # 67b8 <malloc+0x506>
     bac:	00005097          	auipc	ra,0x5
     bb0:	64a080e7          	jalr	1610(ra) # 61f6 <printf>
    exit(1);
     bb4:	4505                	li	a0,1
     bb6:	00005097          	auipc	ra,0x5
     bba:	2c2080e7          	jalr	706(ra) # 5e78 <exit>
    printf("%s: unlink small failed\n", s);
     bbe:	85de                	mv	a1,s7
     bc0:	00006517          	auipc	a0,0x6
     bc4:	c1050513          	addi	a0,a0,-1008 # 67d0 <malloc+0x51e>
     bc8:	00005097          	auipc	ra,0x5
     bcc:	62e080e7          	jalr	1582(ra) # 61f6 <printf>
    exit(1);
     bd0:	4505                	li	a0,1
     bd2:	00005097          	auipc	ra,0x5
     bd6:	2a6080e7          	jalr	678(ra) # 5e78 <exit>

0000000000000bda <writebig>:
{
     bda:	7139                	addi	sp,sp,-64
     bdc:	fc06                	sd	ra,56(sp)
     bde:	f822                	sd	s0,48(sp)
     be0:	f426                	sd	s1,40(sp)
     be2:	f04a                	sd	s2,32(sp)
     be4:	ec4e                	sd	s3,24(sp)
     be6:	e852                	sd	s4,16(sp)
     be8:	e456                	sd	s5,8(sp)
     bea:	e05a                	sd	s6,0(sp)
     bec:	0080                	addi	s0,sp,64
     bee:	8b2a                	mv	s6,a0
  fd = open("big", O_CREATE|O_RDWR);
     bf0:	20200593          	li	a1,514
     bf4:	00006517          	auipc	a0,0x6
     bf8:	bfc50513          	addi	a0,a0,-1028 # 67f0 <malloc+0x53e>
     bfc:	00005097          	auipc	ra,0x5
     c00:	2bc080e7          	jalr	700(ra) # 5eb8 <open>
  if(fd < 0){
     c04:	08054263          	bltz	a0,c88 <writebig+0xae>
     c08:	8a2a                	mv	s4,a0
     c0a:	4481                	li	s1,0
    ((int*)buf)[0] = i;
     c0c:	0000c997          	auipc	s3,0xc
     c10:	06c98993          	addi	s3,s3,108 # cc78 <buf>
    if(write(fd, buf, BSIZE) != BSIZE){
     c14:	40000913          	li	s2,1024
  for(i = 0; i < MAXFILE; i++){
     c18:	10c00a93          	li	s5,268
    ((int*)buf)[0] = i;
     c1c:	0099a023          	sw	s1,0(s3)
    if(write(fd, buf, BSIZE) != BSIZE){
     c20:	864a                	mv	a2,s2
     c22:	85ce                	mv	a1,s3
     c24:	8552                	mv	a0,s4
     c26:	00005097          	auipc	ra,0x5
     c2a:	272080e7          	jalr	626(ra) # 5e98 <write>
     c2e:	07251b63          	bne	a0,s2,ca4 <writebig+0xca>
  for(i = 0; i < MAXFILE; i++){
     c32:	2485                	addiw	s1,s1,1
     c34:	ff5494e3          	bne	s1,s5,c1c <writebig+0x42>
  close(fd);
     c38:	8552                	mv	a0,s4
     c3a:	00005097          	auipc	ra,0x5
     c3e:	266080e7          	jalr	614(ra) # 5ea0 <close>
  fd = open("big", O_RDONLY);
     c42:	4581                	li	a1,0
     c44:	00006517          	auipc	a0,0x6
     c48:	bac50513          	addi	a0,a0,-1108 # 67f0 <malloc+0x53e>
     c4c:	00005097          	auipc	ra,0x5
     c50:	26c080e7          	jalr	620(ra) # 5eb8 <open>
     c54:	8a2a                	mv	s4,a0
  n = 0;
     c56:	4481                	li	s1,0
    i = read(fd, buf, BSIZE);
     c58:	40000993          	li	s3,1024
     c5c:	0000c917          	auipc	s2,0xc
     c60:	01c90913          	addi	s2,s2,28 # cc78 <buf>
  if(fd < 0){
     c64:	04054f63          	bltz	a0,cc2 <writebig+0xe8>
    i = read(fd, buf, BSIZE);
     c68:	864e                	mv	a2,s3
     c6a:	85ca                	mv	a1,s2
     c6c:	8552                	mv	a0,s4
     c6e:	00005097          	auipc	ra,0x5
     c72:	222080e7          	jalr	546(ra) # 5e90 <read>
    if(i == 0){
     c76:	c525                	beqz	a0,cde <writebig+0x104>
    } else if(i != BSIZE){
     c78:	0b351f63          	bne	a0,s3,d36 <writebig+0x15c>
    if(((int*)buf)[0] != n){
     c7c:	00092683          	lw	a3,0(s2)
     c80:	0c969a63          	bne	a3,s1,d54 <writebig+0x17a>
    n++;
     c84:	2485                	addiw	s1,s1,1
    i = read(fd, buf, BSIZE);
     c86:	b7cd                	j	c68 <writebig+0x8e>
    printf("%s: error: creat big failed!\n", s);
     c88:	85da                	mv	a1,s6
     c8a:	00006517          	auipc	a0,0x6
     c8e:	b6e50513          	addi	a0,a0,-1170 # 67f8 <malloc+0x546>
     c92:	00005097          	auipc	ra,0x5
     c96:	564080e7          	jalr	1380(ra) # 61f6 <printf>
    exit(1);
     c9a:	4505                	li	a0,1
     c9c:	00005097          	auipc	ra,0x5
     ca0:	1dc080e7          	jalr	476(ra) # 5e78 <exit>
      printf("%s: error: write big file failed\n", s, i);
     ca4:	8626                	mv	a2,s1
     ca6:	85da                	mv	a1,s6
     ca8:	00006517          	auipc	a0,0x6
     cac:	b7050513          	addi	a0,a0,-1168 # 6818 <malloc+0x566>
     cb0:	00005097          	auipc	ra,0x5
     cb4:	546080e7          	jalr	1350(ra) # 61f6 <printf>
      exit(1);
     cb8:	4505                	li	a0,1
     cba:	00005097          	auipc	ra,0x5
     cbe:	1be080e7          	jalr	446(ra) # 5e78 <exit>
    printf("%s: error: open big failed!\n", s);
     cc2:	85da                	mv	a1,s6
     cc4:	00006517          	auipc	a0,0x6
     cc8:	b7c50513          	addi	a0,a0,-1156 # 6840 <malloc+0x58e>
     ccc:	00005097          	auipc	ra,0x5
     cd0:	52a080e7          	jalr	1322(ra) # 61f6 <printf>
    exit(1);
     cd4:	4505                	li	a0,1
     cd6:	00005097          	auipc	ra,0x5
     cda:	1a2080e7          	jalr	418(ra) # 5e78 <exit>
      if(n == MAXFILE - 1){
     cde:	10b00793          	li	a5,267
     ce2:	02f48b63          	beq	s1,a5,d18 <writebig+0x13e>
  close(fd);
     ce6:	8552                	mv	a0,s4
     ce8:	00005097          	auipc	ra,0x5
     cec:	1b8080e7          	jalr	440(ra) # 5ea0 <close>
  if(unlink("big") < 0){
     cf0:	00006517          	auipc	a0,0x6
     cf4:	b0050513          	addi	a0,a0,-1280 # 67f0 <malloc+0x53e>
     cf8:	00005097          	auipc	ra,0x5
     cfc:	1d0080e7          	jalr	464(ra) # 5ec8 <unlink>
     d00:	06054963          	bltz	a0,d72 <writebig+0x198>
}
     d04:	70e2                	ld	ra,56(sp)
     d06:	7442                	ld	s0,48(sp)
     d08:	74a2                	ld	s1,40(sp)
     d0a:	7902                	ld	s2,32(sp)
     d0c:	69e2                	ld	s3,24(sp)
     d0e:	6a42                	ld	s4,16(sp)
     d10:	6aa2                	ld	s5,8(sp)
     d12:	6b02                	ld	s6,0(sp)
     d14:	6121                	addi	sp,sp,64
     d16:	8082                	ret
        printf("%s: read only %d blocks from big", s, n);
     d18:	863e                	mv	a2,a5
     d1a:	85da                	mv	a1,s6
     d1c:	00006517          	auipc	a0,0x6
     d20:	b4450513          	addi	a0,a0,-1212 # 6860 <malloc+0x5ae>
     d24:	00005097          	auipc	ra,0x5
     d28:	4d2080e7          	jalr	1234(ra) # 61f6 <printf>
        exit(1);
     d2c:	4505                	li	a0,1
     d2e:	00005097          	auipc	ra,0x5
     d32:	14a080e7          	jalr	330(ra) # 5e78 <exit>
      printf("%s: read failed %d\n", s, i);
     d36:	862a                	mv	a2,a0
     d38:	85da                	mv	a1,s6
     d3a:	00006517          	auipc	a0,0x6
     d3e:	b4e50513          	addi	a0,a0,-1202 # 6888 <malloc+0x5d6>
     d42:	00005097          	auipc	ra,0x5
     d46:	4b4080e7          	jalr	1204(ra) # 61f6 <printf>
      exit(1);
     d4a:	4505                	li	a0,1
     d4c:	00005097          	auipc	ra,0x5
     d50:	12c080e7          	jalr	300(ra) # 5e78 <exit>
      printf("%s: read content of block %d is %d\n", s,
     d54:	8626                	mv	a2,s1
     d56:	85da                	mv	a1,s6
     d58:	00006517          	auipc	a0,0x6
     d5c:	b4850513          	addi	a0,a0,-1208 # 68a0 <malloc+0x5ee>
     d60:	00005097          	auipc	ra,0x5
     d64:	496080e7          	jalr	1174(ra) # 61f6 <printf>
      exit(1);
     d68:	4505                	li	a0,1
     d6a:	00005097          	auipc	ra,0x5
     d6e:	10e080e7          	jalr	270(ra) # 5e78 <exit>
    printf("%s: unlink big failed\n", s);
     d72:	85da                	mv	a1,s6
     d74:	00006517          	auipc	a0,0x6
     d78:	b5450513          	addi	a0,a0,-1196 # 68c8 <malloc+0x616>
     d7c:	00005097          	auipc	ra,0x5
     d80:	47a080e7          	jalr	1146(ra) # 61f6 <printf>
    exit(1);
     d84:	4505                	li	a0,1
     d86:	00005097          	auipc	ra,0x5
     d8a:	0f2080e7          	jalr	242(ra) # 5e78 <exit>

0000000000000d8e <unlinkread>:
{
     d8e:	7179                	addi	sp,sp,-48
     d90:	f406                	sd	ra,40(sp)
     d92:	f022                	sd	s0,32(sp)
     d94:	ec26                	sd	s1,24(sp)
     d96:	e84a                	sd	s2,16(sp)
     d98:	e44e                	sd	s3,8(sp)
     d9a:	1800                	addi	s0,sp,48
     d9c:	89aa                	mv	s3,a0
  fd = open("unlinkread", O_CREATE | O_RDWR);
     d9e:	20200593          	li	a1,514
     da2:	00006517          	auipc	a0,0x6
     da6:	b3e50513          	addi	a0,a0,-1218 # 68e0 <malloc+0x62e>
     daa:	00005097          	auipc	ra,0x5
     dae:	10e080e7          	jalr	270(ra) # 5eb8 <open>
  if(fd < 0){
     db2:	0e054563          	bltz	a0,e9c <unlinkread+0x10e>
     db6:	84aa                	mv	s1,a0
  write(fd, "hello", SZ);
     db8:	4615                	li	a2,5
     dba:	00006597          	auipc	a1,0x6
     dbe:	b5658593          	addi	a1,a1,-1194 # 6910 <malloc+0x65e>
     dc2:	00005097          	auipc	ra,0x5
     dc6:	0d6080e7          	jalr	214(ra) # 5e98 <write>
  close(fd);
     dca:	8526                	mv	a0,s1
     dcc:	00005097          	auipc	ra,0x5
     dd0:	0d4080e7          	jalr	212(ra) # 5ea0 <close>
  fd = open("unlinkread", O_RDWR);
     dd4:	4589                	li	a1,2
     dd6:	00006517          	auipc	a0,0x6
     dda:	b0a50513          	addi	a0,a0,-1270 # 68e0 <malloc+0x62e>
     dde:	00005097          	auipc	ra,0x5
     de2:	0da080e7          	jalr	218(ra) # 5eb8 <open>
     de6:	84aa                	mv	s1,a0
  if(fd < 0){
     de8:	0c054863          	bltz	a0,eb8 <unlinkread+0x12a>
  if(unlink("unlinkread") != 0){
     dec:	00006517          	auipc	a0,0x6
     df0:	af450513          	addi	a0,a0,-1292 # 68e0 <malloc+0x62e>
     df4:	00005097          	auipc	ra,0x5
     df8:	0d4080e7          	jalr	212(ra) # 5ec8 <unlink>
     dfc:	ed61                	bnez	a0,ed4 <unlinkread+0x146>
  fd1 = open("unlinkread", O_CREATE | O_RDWR);
     dfe:	20200593          	li	a1,514
     e02:	00006517          	auipc	a0,0x6
     e06:	ade50513          	addi	a0,a0,-1314 # 68e0 <malloc+0x62e>
     e0a:	00005097          	auipc	ra,0x5
     e0e:	0ae080e7          	jalr	174(ra) # 5eb8 <open>
     e12:	892a                	mv	s2,a0
  write(fd1, "yyy", 3);
     e14:	460d                	li	a2,3
     e16:	00006597          	auipc	a1,0x6
     e1a:	b4258593          	addi	a1,a1,-1214 # 6958 <malloc+0x6a6>
     e1e:	00005097          	auipc	ra,0x5
     e22:	07a080e7          	jalr	122(ra) # 5e98 <write>
  close(fd1);
     e26:	854a                	mv	a0,s2
     e28:	00005097          	auipc	ra,0x5
     e2c:	078080e7          	jalr	120(ra) # 5ea0 <close>
  if(read(fd, buf, sizeof(buf)) != SZ){
     e30:	660d                	lui	a2,0x3
     e32:	0000c597          	auipc	a1,0xc
     e36:	e4658593          	addi	a1,a1,-442 # cc78 <buf>
     e3a:	8526                	mv	a0,s1
     e3c:	00005097          	auipc	ra,0x5
     e40:	054080e7          	jalr	84(ra) # 5e90 <read>
     e44:	4795                	li	a5,5
     e46:	0af51563          	bne	a0,a5,ef0 <unlinkread+0x162>
  if(buf[0] != 'h'){
     e4a:	0000c717          	auipc	a4,0xc
     e4e:	e2e74703          	lbu	a4,-466(a4) # cc78 <buf>
     e52:	06800793          	li	a5,104
     e56:	0af71b63          	bne	a4,a5,f0c <unlinkread+0x17e>
  if(write(fd, buf, 10) != 10){
     e5a:	4629                	li	a2,10
     e5c:	0000c597          	auipc	a1,0xc
     e60:	e1c58593          	addi	a1,a1,-484 # cc78 <buf>
     e64:	8526                	mv	a0,s1
     e66:	00005097          	auipc	ra,0x5
     e6a:	032080e7          	jalr	50(ra) # 5e98 <write>
     e6e:	47a9                	li	a5,10
     e70:	0af51c63          	bne	a0,a5,f28 <unlinkread+0x19a>
  close(fd);
     e74:	8526                	mv	a0,s1
     e76:	00005097          	auipc	ra,0x5
     e7a:	02a080e7          	jalr	42(ra) # 5ea0 <close>
  unlink("unlinkread");
     e7e:	00006517          	auipc	a0,0x6
     e82:	a6250513          	addi	a0,a0,-1438 # 68e0 <malloc+0x62e>
     e86:	00005097          	auipc	ra,0x5
     e8a:	042080e7          	jalr	66(ra) # 5ec8 <unlink>
}
     e8e:	70a2                	ld	ra,40(sp)
     e90:	7402                	ld	s0,32(sp)
     e92:	64e2                	ld	s1,24(sp)
     e94:	6942                	ld	s2,16(sp)
     e96:	69a2                	ld	s3,8(sp)
     e98:	6145                	addi	sp,sp,48
     e9a:	8082                	ret
    printf("%s: create unlinkread failed\n", s);
     e9c:	85ce                	mv	a1,s3
     e9e:	00006517          	auipc	a0,0x6
     ea2:	a5250513          	addi	a0,a0,-1454 # 68f0 <malloc+0x63e>
     ea6:	00005097          	auipc	ra,0x5
     eaa:	350080e7          	jalr	848(ra) # 61f6 <printf>
    exit(1);
     eae:	4505                	li	a0,1
     eb0:	00005097          	auipc	ra,0x5
     eb4:	fc8080e7          	jalr	-56(ra) # 5e78 <exit>
    printf("%s: open unlinkread failed\n", s);
     eb8:	85ce                	mv	a1,s3
     eba:	00006517          	auipc	a0,0x6
     ebe:	a5e50513          	addi	a0,a0,-1442 # 6918 <malloc+0x666>
     ec2:	00005097          	auipc	ra,0x5
     ec6:	334080e7          	jalr	820(ra) # 61f6 <printf>
    exit(1);
     eca:	4505                	li	a0,1
     ecc:	00005097          	auipc	ra,0x5
     ed0:	fac080e7          	jalr	-84(ra) # 5e78 <exit>
    printf("%s: unlink unlinkread failed\n", s);
     ed4:	85ce                	mv	a1,s3
     ed6:	00006517          	auipc	a0,0x6
     eda:	a6250513          	addi	a0,a0,-1438 # 6938 <malloc+0x686>
     ede:	00005097          	auipc	ra,0x5
     ee2:	318080e7          	jalr	792(ra) # 61f6 <printf>
    exit(1);
     ee6:	4505                	li	a0,1
     ee8:	00005097          	auipc	ra,0x5
     eec:	f90080e7          	jalr	-112(ra) # 5e78 <exit>
    printf("%s: unlinkread read failed", s);
     ef0:	85ce                	mv	a1,s3
     ef2:	00006517          	auipc	a0,0x6
     ef6:	a6e50513          	addi	a0,a0,-1426 # 6960 <malloc+0x6ae>
     efa:	00005097          	auipc	ra,0x5
     efe:	2fc080e7          	jalr	764(ra) # 61f6 <printf>
    exit(1);
     f02:	4505                	li	a0,1
     f04:	00005097          	auipc	ra,0x5
     f08:	f74080e7          	jalr	-140(ra) # 5e78 <exit>
    printf("%s: unlinkread wrong data\n", s);
     f0c:	85ce                	mv	a1,s3
     f0e:	00006517          	auipc	a0,0x6
     f12:	a7250513          	addi	a0,a0,-1422 # 6980 <malloc+0x6ce>
     f16:	00005097          	auipc	ra,0x5
     f1a:	2e0080e7          	jalr	736(ra) # 61f6 <printf>
    exit(1);
     f1e:	4505                	li	a0,1
     f20:	00005097          	auipc	ra,0x5
     f24:	f58080e7          	jalr	-168(ra) # 5e78 <exit>
    printf("%s: unlinkread write failed\n", s);
     f28:	85ce                	mv	a1,s3
     f2a:	00006517          	auipc	a0,0x6
     f2e:	a7650513          	addi	a0,a0,-1418 # 69a0 <malloc+0x6ee>
     f32:	00005097          	auipc	ra,0x5
     f36:	2c4080e7          	jalr	708(ra) # 61f6 <printf>
    exit(1);
     f3a:	4505                	li	a0,1
     f3c:	00005097          	auipc	ra,0x5
     f40:	f3c080e7          	jalr	-196(ra) # 5e78 <exit>

0000000000000f44 <linktest>:
{
     f44:	1101                	addi	sp,sp,-32
     f46:	ec06                	sd	ra,24(sp)
     f48:	e822                	sd	s0,16(sp)
     f4a:	e426                	sd	s1,8(sp)
     f4c:	e04a                	sd	s2,0(sp)
     f4e:	1000                	addi	s0,sp,32
     f50:	892a                	mv	s2,a0
  unlink("lf1");
     f52:	00006517          	auipc	a0,0x6
     f56:	a6e50513          	addi	a0,a0,-1426 # 69c0 <malloc+0x70e>
     f5a:	00005097          	auipc	ra,0x5
     f5e:	f6e080e7          	jalr	-146(ra) # 5ec8 <unlink>
  unlink("lf2");
     f62:	00006517          	auipc	a0,0x6
     f66:	a6650513          	addi	a0,a0,-1434 # 69c8 <malloc+0x716>
     f6a:	00005097          	auipc	ra,0x5
     f6e:	f5e080e7          	jalr	-162(ra) # 5ec8 <unlink>
  fd = open("lf1", O_CREATE|O_RDWR);
     f72:	20200593          	li	a1,514
     f76:	00006517          	auipc	a0,0x6
     f7a:	a4a50513          	addi	a0,a0,-1462 # 69c0 <malloc+0x70e>
     f7e:	00005097          	auipc	ra,0x5
     f82:	f3a080e7          	jalr	-198(ra) # 5eb8 <open>
  if(fd < 0){
     f86:	10054763          	bltz	a0,1094 <linktest+0x150>
     f8a:	84aa                	mv	s1,a0
  if(write(fd, "hello", SZ) != SZ){
     f8c:	4615                	li	a2,5
     f8e:	00006597          	auipc	a1,0x6
     f92:	98258593          	addi	a1,a1,-1662 # 6910 <malloc+0x65e>
     f96:	00005097          	auipc	ra,0x5
     f9a:	f02080e7          	jalr	-254(ra) # 5e98 <write>
     f9e:	4795                	li	a5,5
     fa0:	10f51863          	bne	a0,a5,10b0 <linktest+0x16c>
  close(fd);
     fa4:	8526                	mv	a0,s1
     fa6:	00005097          	auipc	ra,0x5
     faa:	efa080e7          	jalr	-262(ra) # 5ea0 <close>
  if(link("lf1", "lf2") < 0){
     fae:	00006597          	auipc	a1,0x6
     fb2:	a1a58593          	addi	a1,a1,-1510 # 69c8 <malloc+0x716>
     fb6:	00006517          	auipc	a0,0x6
     fba:	a0a50513          	addi	a0,a0,-1526 # 69c0 <malloc+0x70e>
     fbe:	00005097          	auipc	ra,0x5
     fc2:	f1a080e7          	jalr	-230(ra) # 5ed8 <link>
     fc6:	10054363          	bltz	a0,10cc <linktest+0x188>
  unlink("lf1");
     fca:	00006517          	auipc	a0,0x6
     fce:	9f650513          	addi	a0,a0,-1546 # 69c0 <malloc+0x70e>
     fd2:	00005097          	auipc	ra,0x5
     fd6:	ef6080e7          	jalr	-266(ra) # 5ec8 <unlink>
  if(open("lf1", 0) >= 0){
     fda:	4581                	li	a1,0
     fdc:	00006517          	auipc	a0,0x6
     fe0:	9e450513          	addi	a0,a0,-1564 # 69c0 <malloc+0x70e>
     fe4:	00005097          	auipc	ra,0x5
     fe8:	ed4080e7          	jalr	-300(ra) # 5eb8 <open>
     fec:	0e055e63          	bgez	a0,10e8 <linktest+0x1a4>
  fd = open("lf2", 0);
     ff0:	4581                	li	a1,0
     ff2:	00006517          	auipc	a0,0x6
     ff6:	9d650513          	addi	a0,a0,-1578 # 69c8 <malloc+0x716>
     ffa:	00005097          	auipc	ra,0x5
     ffe:	ebe080e7          	jalr	-322(ra) # 5eb8 <open>
    1002:	84aa                	mv	s1,a0
  if(fd < 0){
    1004:	10054063          	bltz	a0,1104 <linktest+0x1c0>
  if(read(fd, buf, sizeof(buf)) != SZ){
    1008:	660d                	lui	a2,0x3
    100a:	0000c597          	auipc	a1,0xc
    100e:	c6e58593          	addi	a1,a1,-914 # cc78 <buf>
    1012:	00005097          	auipc	ra,0x5
    1016:	e7e080e7          	jalr	-386(ra) # 5e90 <read>
    101a:	4795                	li	a5,5
    101c:	10f51263          	bne	a0,a5,1120 <linktest+0x1dc>
  close(fd);
    1020:	8526                	mv	a0,s1
    1022:	00005097          	auipc	ra,0x5
    1026:	e7e080e7          	jalr	-386(ra) # 5ea0 <close>
  if(link("lf2", "lf2") >= 0){
    102a:	00006597          	auipc	a1,0x6
    102e:	99e58593          	addi	a1,a1,-1634 # 69c8 <malloc+0x716>
    1032:	852e                	mv	a0,a1
    1034:	00005097          	auipc	ra,0x5
    1038:	ea4080e7          	jalr	-348(ra) # 5ed8 <link>
    103c:	10055063          	bgez	a0,113c <linktest+0x1f8>
  unlink("lf2");
    1040:	00006517          	auipc	a0,0x6
    1044:	98850513          	addi	a0,a0,-1656 # 69c8 <malloc+0x716>
    1048:	00005097          	auipc	ra,0x5
    104c:	e80080e7          	jalr	-384(ra) # 5ec8 <unlink>
  if(link("lf2", "lf1") >= 0){
    1050:	00006597          	auipc	a1,0x6
    1054:	97058593          	addi	a1,a1,-1680 # 69c0 <malloc+0x70e>
    1058:	00006517          	auipc	a0,0x6
    105c:	97050513          	addi	a0,a0,-1680 # 69c8 <malloc+0x716>
    1060:	00005097          	auipc	ra,0x5
    1064:	e78080e7          	jalr	-392(ra) # 5ed8 <link>
    1068:	0e055863          	bgez	a0,1158 <linktest+0x214>
  if(link(".", "lf1") >= 0){
    106c:	00006597          	auipc	a1,0x6
    1070:	95458593          	addi	a1,a1,-1708 # 69c0 <malloc+0x70e>
    1074:	00006517          	auipc	a0,0x6
    1078:	a5c50513          	addi	a0,a0,-1444 # 6ad0 <malloc+0x81e>
    107c:	00005097          	auipc	ra,0x5
    1080:	e5c080e7          	jalr	-420(ra) # 5ed8 <link>
    1084:	0e055863          	bgez	a0,1174 <linktest+0x230>
}
    1088:	60e2                	ld	ra,24(sp)
    108a:	6442                	ld	s0,16(sp)
    108c:	64a2                	ld	s1,8(sp)
    108e:	6902                	ld	s2,0(sp)
    1090:	6105                	addi	sp,sp,32
    1092:	8082                	ret
    printf("%s: create lf1 failed\n", s);
    1094:	85ca                	mv	a1,s2
    1096:	00006517          	auipc	a0,0x6
    109a:	93a50513          	addi	a0,a0,-1734 # 69d0 <malloc+0x71e>
    109e:	00005097          	auipc	ra,0x5
    10a2:	158080e7          	jalr	344(ra) # 61f6 <printf>
    exit(1);
    10a6:	4505                	li	a0,1
    10a8:	00005097          	auipc	ra,0x5
    10ac:	dd0080e7          	jalr	-560(ra) # 5e78 <exit>
    printf("%s: write lf1 failed\n", s);
    10b0:	85ca                	mv	a1,s2
    10b2:	00006517          	auipc	a0,0x6
    10b6:	93650513          	addi	a0,a0,-1738 # 69e8 <malloc+0x736>
    10ba:	00005097          	auipc	ra,0x5
    10be:	13c080e7          	jalr	316(ra) # 61f6 <printf>
    exit(1);
    10c2:	4505                	li	a0,1
    10c4:	00005097          	auipc	ra,0x5
    10c8:	db4080e7          	jalr	-588(ra) # 5e78 <exit>
    printf("%s: link lf1 lf2 failed\n", s);
    10cc:	85ca                	mv	a1,s2
    10ce:	00006517          	auipc	a0,0x6
    10d2:	93250513          	addi	a0,a0,-1742 # 6a00 <malloc+0x74e>
    10d6:	00005097          	auipc	ra,0x5
    10da:	120080e7          	jalr	288(ra) # 61f6 <printf>
    exit(1);
    10de:	4505                	li	a0,1
    10e0:	00005097          	auipc	ra,0x5
    10e4:	d98080e7          	jalr	-616(ra) # 5e78 <exit>
    printf("%s: unlinked lf1 but it is still there!\n", s);
    10e8:	85ca                	mv	a1,s2
    10ea:	00006517          	auipc	a0,0x6
    10ee:	93650513          	addi	a0,a0,-1738 # 6a20 <malloc+0x76e>
    10f2:	00005097          	auipc	ra,0x5
    10f6:	104080e7          	jalr	260(ra) # 61f6 <printf>
    exit(1);
    10fa:	4505                	li	a0,1
    10fc:	00005097          	auipc	ra,0x5
    1100:	d7c080e7          	jalr	-644(ra) # 5e78 <exit>
    printf("%s: open lf2 failed\n", s);
    1104:	85ca                	mv	a1,s2
    1106:	00006517          	auipc	a0,0x6
    110a:	94a50513          	addi	a0,a0,-1718 # 6a50 <malloc+0x79e>
    110e:	00005097          	auipc	ra,0x5
    1112:	0e8080e7          	jalr	232(ra) # 61f6 <printf>
    exit(1);
    1116:	4505                	li	a0,1
    1118:	00005097          	auipc	ra,0x5
    111c:	d60080e7          	jalr	-672(ra) # 5e78 <exit>
    printf("%s: read lf2 failed\n", s);
    1120:	85ca                	mv	a1,s2
    1122:	00006517          	auipc	a0,0x6
    1126:	94650513          	addi	a0,a0,-1722 # 6a68 <malloc+0x7b6>
    112a:	00005097          	auipc	ra,0x5
    112e:	0cc080e7          	jalr	204(ra) # 61f6 <printf>
    exit(1);
    1132:	4505                	li	a0,1
    1134:	00005097          	auipc	ra,0x5
    1138:	d44080e7          	jalr	-700(ra) # 5e78 <exit>
    printf("%s: link lf2 lf2 succeeded! oops\n", s);
    113c:	85ca                	mv	a1,s2
    113e:	00006517          	auipc	a0,0x6
    1142:	94250513          	addi	a0,a0,-1726 # 6a80 <malloc+0x7ce>
    1146:	00005097          	auipc	ra,0x5
    114a:	0b0080e7          	jalr	176(ra) # 61f6 <printf>
    exit(1);
    114e:	4505                	li	a0,1
    1150:	00005097          	auipc	ra,0x5
    1154:	d28080e7          	jalr	-728(ra) # 5e78 <exit>
    printf("%s: link non-existent succeeded! oops\n", s);
    1158:	85ca                	mv	a1,s2
    115a:	00006517          	auipc	a0,0x6
    115e:	94e50513          	addi	a0,a0,-1714 # 6aa8 <malloc+0x7f6>
    1162:	00005097          	auipc	ra,0x5
    1166:	094080e7          	jalr	148(ra) # 61f6 <printf>
    exit(1);
    116a:	4505                	li	a0,1
    116c:	00005097          	auipc	ra,0x5
    1170:	d0c080e7          	jalr	-756(ra) # 5e78 <exit>
    printf("%s: link . lf1 succeeded! oops\n", s);
    1174:	85ca                	mv	a1,s2
    1176:	00006517          	auipc	a0,0x6
    117a:	96250513          	addi	a0,a0,-1694 # 6ad8 <malloc+0x826>
    117e:	00005097          	auipc	ra,0x5
    1182:	078080e7          	jalr	120(ra) # 61f6 <printf>
    exit(1);
    1186:	4505                	li	a0,1
    1188:	00005097          	auipc	ra,0x5
    118c:	cf0080e7          	jalr	-784(ra) # 5e78 <exit>

0000000000001190 <validatetest>:
{
    1190:	7139                	addi	sp,sp,-64
    1192:	fc06                	sd	ra,56(sp)
    1194:	f822                	sd	s0,48(sp)
    1196:	f426                	sd	s1,40(sp)
    1198:	f04a                	sd	s2,32(sp)
    119a:	ec4e                	sd	s3,24(sp)
    119c:	e852                	sd	s4,16(sp)
    119e:	e456                	sd	s5,8(sp)
    11a0:	e05a                	sd	s6,0(sp)
    11a2:	0080                	addi	s0,sp,64
    11a4:	8b2a                	mv	s6,a0
  for(p = 0; p <= (uint)hi; p += PGSIZE){
    11a6:	4481                	li	s1,0
    if(link("nosuchfile", (char*)p) != -1){
    11a8:	00006997          	auipc	s3,0x6
    11ac:	95098993          	addi	s3,s3,-1712 # 6af8 <malloc+0x846>
    11b0:	597d                	li	s2,-1
  for(p = 0; p <= (uint)hi; p += PGSIZE){
    11b2:	6a85                	lui	s5,0x1
    11b4:	00114a37          	lui	s4,0x114
    if(link("nosuchfile", (char*)p) != -1){
    11b8:	85a6                	mv	a1,s1
    11ba:	854e                	mv	a0,s3
    11bc:	00005097          	auipc	ra,0x5
    11c0:	d1c080e7          	jalr	-740(ra) # 5ed8 <link>
    11c4:	01251f63          	bne	a0,s2,11e2 <validatetest+0x52>
  for(p = 0; p <= (uint)hi; p += PGSIZE){
    11c8:	94d6                	add	s1,s1,s5
    11ca:	ff4497e3          	bne	s1,s4,11b8 <validatetest+0x28>
}
    11ce:	70e2                	ld	ra,56(sp)
    11d0:	7442                	ld	s0,48(sp)
    11d2:	74a2                	ld	s1,40(sp)
    11d4:	7902                	ld	s2,32(sp)
    11d6:	69e2                	ld	s3,24(sp)
    11d8:	6a42                	ld	s4,16(sp)
    11da:	6aa2                	ld	s5,8(sp)
    11dc:	6b02                	ld	s6,0(sp)
    11de:	6121                	addi	sp,sp,64
    11e0:	8082                	ret
      printf("%s: link should not succeed\n", s);
    11e2:	85da                	mv	a1,s6
    11e4:	00006517          	auipc	a0,0x6
    11e8:	92450513          	addi	a0,a0,-1756 # 6b08 <malloc+0x856>
    11ec:	00005097          	auipc	ra,0x5
    11f0:	00a080e7          	jalr	10(ra) # 61f6 <printf>
      exit(1);
    11f4:	4505                	li	a0,1
    11f6:	00005097          	auipc	ra,0x5
    11fa:	c82080e7          	jalr	-894(ra) # 5e78 <exit>

00000000000011fe <bigdir>:
{
    11fe:	711d                	addi	sp,sp,-96
    1200:	ec86                	sd	ra,88(sp)
    1202:	e8a2                	sd	s0,80(sp)
    1204:	e4a6                	sd	s1,72(sp)
    1206:	e0ca                	sd	s2,64(sp)
    1208:	fc4e                	sd	s3,56(sp)
    120a:	f852                	sd	s4,48(sp)
    120c:	f456                	sd	s5,40(sp)
    120e:	f05a                	sd	s6,32(sp)
    1210:	ec5e                	sd	s7,24(sp)
    1212:	1080                	addi	s0,sp,96
    1214:	89aa                	mv	s3,a0
  unlink("bd");
    1216:	00006517          	auipc	a0,0x6
    121a:	91250513          	addi	a0,a0,-1774 # 6b28 <malloc+0x876>
    121e:	00005097          	auipc	ra,0x5
    1222:	caa080e7          	jalr	-854(ra) # 5ec8 <unlink>
  fd = open("bd", O_CREATE);
    1226:	20000593          	li	a1,512
    122a:	00006517          	auipc	a0,0x6
    122e:	8fe50513          	addi	a0,a0,-1794 # 6b28 <malloc+0x876>
    1232:	00005097          	auipc	ra,0x5
    1236:	c86080e7          	jalr	-890(ra) # 5eb8 <open>
  if(fd < 0){
    123a:	0c054c63          	bltz	a0,1312 <bigdir+0x114>
  close(fd);
    123e:	00005097          	auipc	ra,0x5
    1242:	c62080e7          	jalr	-926(ra) # 5ea0 <close>
  for(i = 0; i < N; i++){
    1246:	4901                	li	s2,0
    name[0] = 'x';
    1248:	07800b13          	li	s6,120
    if(link("bd", name) != 0){
    124c:	fa040a93          	addi	s5,s0,-96
    1250:	00006a17          	auipc	s4,0x6
    1254:	8d8a0a13          	addi	s4,s4,-1832 # 6b28 <malloc+0x876>
  for(i = 0; i < N; i++){
    1258:	1f400b93          	li	s7,500
    name[0] = 'x';
    125c:	fb640023          	sb	s6,-96(s0)
    name[1] = '0' + (i / 64);
    1260:	41f9571b          	sraiw	a4,s2,0x1f
    1264:	01a7571b          	srliw	a4,a4,0x1a
    1268:	012707bb          	addw	a5,a4,s2
    126c:	4067d69b          	sraiw	a3,a5,0x6
    1270:	0306869b          	addiw	a3,a3,48
    1274:	fad400a3          	sb	a3,-95(s0)
    name[2] = '0' + (i % 64);
    1278:	03f7f793          	andi	a5,a5,63
    127c:	9f99                	subw	a5,a5,a4
    127e:	0307879b          	addiw	a5,a5,48
    1282:	faf40123          	sb	a5,-94(s0)
    name[3] = '\0';
    1286:	fa0401a3          	sb	zero,-93(s0)
    if(link("bd", name) != 0){
    128a:	85d6                	mv	a1,s5
    128c:	8552                	mv	a0,s4
    128e:	00005097          	auipc	ra,0x5
    1292:	c4a080e7          	jalr	-950(ra) # 5ed8 <link>
    1296:	84aa                	mv	s1,a0
    1298:	e959                	bnez	a0,132e <bigdir+0x130>
  for(i = 0; i < N; i++){
    129a:	2905                	addiw	s2,s2,1
    129c:	fd7910e3          	bne	s2,s7,125c <bigdir+0x5e>
  unlink("bd");
    12a0:	00006517          	auipc	a0,0x6
    12a4:	88850513          	addi	a0,a0,-1912 # 6b28 <malloc+0x876>
    12a8:	00005097          	auipc	ra,0x5
    12ac:	c20080e7          	jalr	-992(ra) # 5ec8 <unlink>
    name[0] = 'x';
    12b0:	07800a13          	li	s4,120
    if(unlink(name) != 0){
    12b4:	fa040913          	addi	s2,s0,-96
  for(i = 0; i < N; i++){
    12b8:	1f400a93          	li	s5,500
    name[0] = 'x';
    12bc:	fb440023          	sb	s4,-96(s0)
    name[1] = '0' + (i / 64);
    12c0:	41f4d71b          	sraiw	a4,s1,0x1f
    12c4:	01a7571b          	srliw	a4,a4,0x1a
    12c8:	009707bb          	addw	a5,a4,s1
    12cc:	4067d69b          	sraiw	a3,a5,0x6
    12d0:	0306869b          	addiw	a3,a3,48
    12d4:	fad400a3          	sb	a3,-95(s0)
    name[2] = '0' + (i % 64);
    12d8:	03f7f793          	andi	a5,a5,63
    12dc:	9f99                	subw	a5,a5,a4
    12de:	0307879b          	addiw	a5,a5,48
    12e2:	faf40123          	sb	a5,-94(s0)
    name[3] = '\0';
    12e6:	fa0401a3          	sb	zero,-93(s0)
    if(unlink(name) != 0){
    12ea:	854a                	mv	a0,s2
    12ec:	00005097          	auipc	ra,0x5
    12f0:	bdc080e7          	jalr	-1060(ra) # 5ec8 <unlink>
    12f4:	ed29                	bnez	a0,134e <bigdir+0x150>
  for(i = 0; i < N; i++){
    12f6:	2485                	addiw	s1,s1,1
    12f8:	fd5492e3          	bne	s1,s5,12bc <bigdir+0xbe>
}
    12fc:	60e6                	ld	ra,88(sp)
    12fe:	6446                	ld	s0,80(sp)
    1300:	64a6                	ld	s1,72(sp)
    1302:	6906                	ld	s2,64(sp)
    1304:	79e2                	ld	s3,56(sp)
    1306:	7a42                	ld	s4,48(sp)
    1308:	7aa2                	ld	s5,40(sp)
    130a:	7b02                	ld	s6,32(sp)
    130c:	6be2                	ld	s7,24(sp)
    130e:	6125                	addi	sp,sp,96
    1310:	8082                	ret
    printf("%s: bigdir create failed\n", s);
    1312:	85ce                	mv	a1,s3
    1314:	00006517          	auipc	a0,0x6
    1318:	81c50513          	addi	a0,a0,-2020 # 6b30 <malloc+0x87e>
    131c:	00005097          	auipc	ra,0x5
    1320:	eda080e7          	jalr	-294(ra) # 61f6 <printf>
    exit(1);
    1324:	4505                	li	a0,1
    1326:	00005097          	auipc	ra,0x5
    132a:	b52080e7          	jalr	-1198(ra) # 5e78 <exit>
      printf("%s: bigdir link(bd, %s) failed\n", s, name);
    132e:	fa040613          	addi	a2,s0,-96
    1332:	85ce                	mv	a1,s3
    1334:	00006517          	auipc	a0,0x6
    1338:	81c50513          	addi	a0,a0,-2020 # 6b50 <malloc+0x89e>
    133c:	00005097          	auipc	ra,0x5
    1340:	eba080e7          	jalr	-326(ra) # 61f6 <printf>
      exit(1);
    1344:	4505                	li	a0,1
    1346:	00005097          	auipc	ra,0x5
    134a:	b32080e7          	jalr	-1230(ra) # 5e78 <exit>
      printf("%s: bigdir unlink failed", s);
    134e:	85ce                	mv	a1,s3
    1350:	00006517          	auipc	a0,0x6
    1354:	82050513          	addi	a0,a0,-2016 # 6b70 <malloc+0x8be>
    1358:	00005097          	auipc	ra,0x5
    135c:	e9e080e7          	jalr	-354(ra) # 61f6 <printf>
      exit(1);
    1360:	4505                	li	a0,1
    1362:	00005097          	auipc	ra,0x5
    1366:	b16080e7          	jalr	-1258(ra) # 5e78 <exit>

000000000000136a <pgbug>:
{
    136a:	7179                	addi	sp,sp,-48
    136c:	f406                	sd	ra,40(sp)
    136e:	f022                	sd	s0,32(sp)
    1370:	ec26                	sd	s1,24(sp)
    1372:	1800                	addi	s0,sp,48
  argv[0] = 0;
    1374:	fc043c23          	sd	zero,-40(s0)
  exec(big, argv);
    1378:	00008497          	auipc	s1,0x8
    137c:	c8848493          	addi	s1,s1,-888 # 9000 <big>
    1380:	fd840593          	addi	a1,s0,-40
    1384:	6088                	ld	a0,0(s1)
    1386:	00005097          	auipc	ra,0x5
    138a:	b2a080e7          	jalr	-1238(ra) # 5eb0 <exec>
  pipe(big);
    138e:	6088                	ld	a0,0(s1)
    1390:	00005097          	auipc	ra,0x5
    1394:	af8080e7          	jalr	-1288(ra) # 5e88 <pipe>
  exit(0);
    1398:	4501                	li	a0,0
    139a:	00005097          	auipc	ra,0x5
    139e:	ade080e7          	jalr	-1314(ra) # 5e78 <exit>

00000000000013a2 <badarg>:
{
    13a2:	7139                	addi	sp,sp,-64
    13a4:	fc06                	sd	ra,56(sp)
    13a6:	f822                	sd	s0,48(sp)
    13a8:	f426                	sd	s1,40(sp)
    13aa:	f04a                	sd	s2,32(sp)
    13ac:	ec4e                	sd	s3,24(sp)
    13ae:	e852                	sd	s4,16(sp)
    13b0:	0080                	addi	s0,sp,64
    13b2:	64b1                	lui	s1,0xc
    13b4:	35048493          	addi	s1,s1,848 # c350 <uninit+0x1de8>
    argv[0] = (char*)0xffffffff;
    13b8:	597d                	li	s2,-1
    13ba:	02095913          	srli	s2,s2,0x20
    exec("echo", argv);
    13be:	fc040a13          	addi	s4,s0,-64
    13c2:	00005997          	auipc	s3,0x5
    13c6:	02698993          	addi	s3,s3,38 # 63e8 <malloc+0x136>
    argv[0] = (char*)0xffffffff;
    13ca:	fd243023          	sd	s2,-64(s0)
    argv[1] = 0;
    13ce:	fc043423          	sd	zero,-56(s0)
    exec("echo", argv);
    13d2:	85d2                	mv	a1,s4
    13d4:	854e                	mv	a0,s3
    13d6:	00005097          	auipc	ra,0x5
    13da:	ada080e7          	jalr	-1318(ra) # 5eb0 <exec>
  for(int i = 0; i < 50000; i++){
    13de:	34fd                	addiw	s1,s1,-1
    13e0:	f4ed                	bnez	s1,13ca <badarg+0x28>
  exit(0);
    13e2:	4501                	li	a0,0
    13e4:	00005097          	auipc	ra,0x5
    13e8:	a94080e7          	jalr	-1388(ra) # 5e78 <exit>

00000000000013ec <copyinstr2>:
{
    13ec:	7155                	addi	sp,sp,-208
    13ee:	e586                	sd	ra,200(sp)
    13f0:	e1a2                	sd	s0,192(sp)
    13f2:	0980                	addi	s0,sp,208
  for(int i = 0; i < MAXPATH; i++)
    13f4:	f6840793          	addi	a5,s0,-152
    13f8:	fe840693          	addi	a3,s0,-24
    b[i] = 'x';
    13fc:	07800713          	li	a4,120
    1400:	00e78023          	sb	a4,0(a5)
  for(int i = 0; i < MAXPATH; i++)
    1404:	0785                	addi	a5,a5,1
    1406:	fed79de3          	bne	a5,a3,1400 <copyinstr2+0x14>
  b[MAXPATH] = '\0';
    140a:	fe040423          	sb	zero,-24(s0)
  int ret = unlink(b);
    140e:	f6840513          	addi	a0,s0,-152
    1412:	00005097          	auipc	ra,0x5
    1416:	ab6080e7          	jalr	-1354(ra) # 5ec8 <unlink>
  if(ret != -1){
    141a:	57fd                	li	a5,-1
    141c:	0ef51063          	bne	a0,a5,14fc <copyinstr2+0x110>
  int fd = open(b, O_CREATE | O_WRONLY);
    1420:	20100593          	li	a1,513
    1424:	f6840513          	addi	a0,s0,-152
    1428:	00005097          	auipc	ra,0x5
    142c:	a90080e7          	jalr	-1392(ra) # 5eb8 <open>
  if(fd != -1){
    1430:	57fd                	li	a5,-1
    1432:	0ef51563          	bne	a0,a5,151c <copyinstr2+0x130>
  ret = link(b, b);
    1436:	f6840513          	addi	a0,s0,-152
    143a:	85aa                	mv	a1,a0
    143c:	00005097          	auipc	ra,0x5
    1440:	a9c080e7          	jalr	-1380(ra) # 5ed8 <link>
  if(ret != -1){
    1444:	57fd                	li	a5,-1
    1446:	0ef51b63          	bne	a0,a5,153c <copyinstr2+0x150>
  char *args[] = { "xx", 0 };
    144a:	00007797          	auipc	a5,0x7
    144e:	97e78793          	addi	a5,a5,-1666 # 7dc8 <malloc+0x1b16>
    1452:	f4f43c23          	sd	a5,-168(s0)
    1456:	f6043023          	sd	zero,-160(s0)
  ret = exec(b, args);
    145a:	f5840593          	addi	a1,s0,-168
    145e:	f6840513          	addi	a0,s0,-152
    1462:	00005097          	auipc	ra,0x5
    1466:	a4e080e7          	jalr	-1458(ra) # 5eb0 <exec>
  if(ret != -1){
    146a:	57fd                	li	a5,-1
    146c:	0ef51963          	bne	a0,a5,155e <copyinstr2+0x172>
  int pid = fork();
    1470:	00005097          	auipc	ra,0x5
    1474:	a00080e7          	jalr	-1536(ra) # 5e70 <fork>
  if(pid < 0){
    1478:	10054363          	bltz	a0,157e <copyinstr2+0x192>
  if(pid == 0){
    147c:	12051463          	bnez	a0,15a4 <copyinstr2+0x1b8>
    1480:	00008797          	auipc	a5,0x8
    1484:	0e078793          	addi	a5,a5,224 # 9560 <big.0>
    1488:	00009697          	auipc	a3,0x9
    148c:	0d868693          	addi	a3,a3,216 # a560 <big.0+0x1000>
      big[i] = 'x';
    1490:	07800713          	li	a4,120
    1494:	00e78023          	sb	a4,0(a5)
    for(int i = 0; i < PGSIZE; i++)
    1498:	0785                	addi	a5,a5,1
    149a:	fed79de3          	bne	a5,a3,1494 <copyinstr2+0xa8>
    big[PGSIZE] = '\0';
    149e:	00009797          	auipc	a5,0x9
    14a2:	0c078123          	sb	zero,194(a5) # a560 <big.0+0x1000>
    char *args2[] = { big, big, big, 0 };
    14a6:	00007797          	auipc	a5,0x7
    14aa:	36a78793          	addi	a5,a5,874 # 8810 <malloc+0x255e>
    14ae:	6390                	ld	a2,0(a5)
    14b0:	6794                	ld	a3,8(a5)
    14b2:	6b98                	ld	a4,16(a5)
    14b4:	6f9c                	ld	a5,24(a5)
    14b6:	f2c43823          	sd	a2,-208(s0)
    14ba:	f2d43c23          	sd	a3,-200(s0)
    14be:	f4e43023          	sd	a4,-192(s0)
    14c2:	f4f43423          	sd	a5,-184(s0)
    ret = exec("echo", args2);
    14c6:	f3040593          	addi	a1,s0,-208
    14ca:	00005517          	auipc	a0,0x5
    14ce:	f1e50513          	addi	a0,a0,-226 # 63e8 <malloc+0x136>
    14d2:	00005097          	auipc	ra,0x5
    14d6:	9de080e7          	jalr	-1570(ra) # 5eb0 <exec>
    if(ret != -1){
    14da:	57fd                	li	a5,-1
    14dc:	0af50e63          	beq	a0,a5,1598 <copyinstr2+0x1ac>
      printf("exec(echo, BIG) returned %d, not -1\n", fd);
    14e0:	85be                	mv	a1,a5
    14e2:	00005517          	auipc	a0,0x5
    14e6:	73650513          	addi	a0,a0,1846 # 6c18 <malloc+0x966>
    14ea:	00005097          	auipc	ra,0x5
    14ee:	d0c080e7          	jalr	-756(ra) # 61f6 <printf>
      exit(1);
    14f2:	4505                	li	a0,1
    14f4:	00005097          	auipc	ra,0x5
    14f8:	984080e7          	jalr	-1660(ra) # 5e78 <exit>
    printf("unlink(%s) returned %d, not -1\n", b, ret);
    14fc:	862a                	mv	a2,a0
    14fe:	f6840593          	addi	a1,s0,-152
    1502:	00005517          	auipc	a0,0x5
    1506:	68e50513          	addi	a0,a0,1678 # 6b90 <malloc+0x8de>
    150a:	00005097          	auipc	ra,0x5
    150e:	cec080e7          	jalr	-788(ra) # 61f6 <printf>
    exit(1);
    1512:	4505                	li	a0,1
    1514:	00005097          	auipc	ra,0x5
    1518:	964080e7          	jalr	-1692(ra) # 5e78 <exit>
    printf("open(%s) returned %d, not -1\n", b, fd);
    151c:	862a                	mv	a2,a0
    151e:	f6840593          	addi	a1,s0,-152
    1522:	00005517          	auipc	a0,0x5
    1526:	68e50513          	addi	a0,a0,1678 # 6bb0 <malloc+0x8fe>
    152a:	00005097          	auipc	ra,0x5
    152e:	ccc080e7          	jalr	-820(ra) # 61f6 <printf>
    exit(1);
    1532:	4505                	li	a0,1
    1534:	00005097          	auipc	ra,0x5
    1538:	944080e7          	jalr	-1724(ra) # 5e78 <exit>
    printf("link(%s, %s) returned %d, not -1\n", b, b, ret);
    153c:	f6840593          	addi	a1,s0,-152
    1540:	86aa                	mv	a3,a0
    1542:	862e                	mv	a2,a1
    1544:	00005517          	auipc	a0,0x5
    1548:	68c50513          	addi	a0,a0,1676 # 6bd0 <malloc+0x91e>
    154c:	00005097          	auipc	ra,0x5
    1550:	caa080e7          	jalr	-854(ra) # 61f6 <printf>
    exit(1);
    1554:	4505                	li	a0,1
    1556:	00005097          	auipc	ra,0x5
    155a:	922080e7          	jalr	-1758(ra) # 5e78 <exit>
    printf("exec(%s) returned %d, not -1\n", b, fd);
    155e:	863e                	mv	a2,a5
    1560:	f6840593          	addi	a1,s0,-152
    1564:	00005517          	auipc	a0,0x5
    1568:	69450513          	addi	a0,a0,1684 # 6bf8 <malloc+0x946>
    156c:	00005097          	auipc	ra,0x5
    1570:	c8a080e7          	jalr	-886(ra) # 61f6 <printf>
    exit(1);
    1574:	4505                	li	a0,1
    1576:	00005097          	auipc	ra,0x5
    157a:	902080e7          	jalr	-1790(ra) # 5e78 <exit>
    printf("fork failed\n");
    157e:	00006517          	auipc	a0,0x6
    1582:	afa50513          	addi	a0,a0,-1286 # 7078 <malloc+0xdc6>
    1586:	00005097          	auipc	ra,0x5
    158a:	c70080e7          	jalr	-912(ra) # 61f6 <printf>
    exit(1);
    158e:	4505                	li	a0,1
    1590:	00005097          	auipc	ra,0x5
    1594:	8e8080e7          	jalr	-1816(ra) # 5e78 <exit>
    exit(747); // OK
    1598:	2eb00513          	li	a0,747
    159c:	00005097          	auipc	ra,0x5
    15a0:	8dc080e7          	jalr	-1828(ra) # 5e78 <exit>
  int st = 0;
    15a4:	f4042a23          	sw	zero,-172(s0)
  wait(&st);
    15a8:	f5440513          	addi	a0,s0,-172
    15ac:	00005097          	auipc	ra,0x5
    15b0:	8d4080e7          	jalr	-1836(ra) # 5e80 <wait>
  if(st != 747){
    15b4:	f5442703          	lw	a4,-172(s0)
    15b8:	2eb00793          	li	a5,747
    15bc:	00f71663          	bne	a4,a5,15c8 <copyinstr2+0x1dc>
}
    15c0:	60ae                	ld	ra,200(sp)
    15c2:	640e                	ld	s0,192(sp)
    15c4:	6169                	addi	sp,sp,208
    15c6:	8082                	ret
    printf("exec(echo, BIG) succeeded, should have failed\n");
    15c8:	00005517          	auipc	a0,0x5
    15cc:	67850513          	addi	a0,a0,1656 # 6c40 <malloc+0x98e>
    15d0:	00005097          	auipc	ra,0x5
    15d4:	c26080e7          	jalr	-986(ra) # 61f6 <printf>
    exit(1);
    15d8:	4505                	li	a0,1
    15da:	00005097          	auipc	ra,0x5
    15de:	89e080e7          	jalr	-1890(ra) # 5e78 <exit>

00000000000015e2 <truncate3>:
{
    15e2:	7175                	addi	sp,sp,-144
    15e4:	e506                	sd	ra,136(sp)
    15e6:	e122                	sd	s0,128(sp)
    15e8:	ecd6                	sd	s5,88(sp)
    15ea:	0900                	addi	s0,sp,144
    15ec:	8aaa                	mv	s5,a0
  close(open("truncfile", O_CREATE|O_TRUNC|O_WRONLY));
    15ee:	60100593          	li	a1,1537
    15f2:	00005517          	auipc	a0,0x5
    15f6:	e4e50513          	addi	a0,a0,-434 # 6440 <malloc+0x18e>
    15fa:	00005097          	auipc	ra,0x5
    15fe:	8be080e7          	jalr	-1858(ra) # 5eb8 <open>
    1602:	00005097          	auipc	ra,0x5
    1606:	89e080e7          	jalr	-1890(ra) # 5ea0 <close>
  pid = fork();
    160a:	00005097          	auipc	ra,0x5
    160e:	866080e7          	jalr	-1946(ra) # 5e70 <fork>
  if(pid < 0){
    1612:	08054b63          	bltz	a0,16a8 <truncate3+0xc6>
  if(pid == 0){
    1616:	ed65                	bnez	a0,170e <truncate3+0x12c>
    1618:	fca6                	sd	s1,120(sp)
    161a:	f8ca                	sd	s2,112(sp)
    161c:	f4ce                	sd	s3,104(sp)
    161e:	f0d2                	sd	s4,96(sp)
    1620:	e8da                	sd	s6,80(sp)
    1622:	e4de                	sd	s7,72(sp)
    1624:	e0e2                	sd	s8,64(sp)
    1626:	fc66                	sd	s9,56(sp)
    1628:	06400913          	li	s2,100
      int fd = open("truncfile", O_WRONLY);
    162c:	4b05                	li	s6,1
    162e:	00005997          	auipc	s3,0x5
    1632:	e1298993          	addi	s3,s3,-494 # 6440 <malloc+0x18e>
      int n = write(fd, "1234567890", 10);
    1636:	4a29                	li	s4,10
    1638:	00005b97          	auipc	s7,0x5
    163c:	668b8b93          	addi	s7,s7,1640 # 6ca0 <malloc+0x9ee>
      read(fd, buf, sizeof(buf));
    1640:	f7840c93          	addi	s9,s0,-136
    1644:	02000c13          	li	s8,32
      int fd = open("truncfile", O_WRONLY);
    1648:	85da                	mv	a1,s6
    164a:	854e                	mv	a0,s3
    164c:	00005097          	auipc	ra,0x5
    1650:	86c080e7          	jalr	-1940(ra) # 5eb8 <open>
    1654:	84aa                	mv	s1,a0
      if(fd < 0){
    1656:	06054f63          	bltz	a0,16d4 <truncate3+0xf2>
      int n = write(fd, "1234567890", 10);
    165a:	8652                	mv	a2,s4
    165c:	85de                	mv	a1,s7
    165e:	00005097          	auipc	ra,0x5
    1662:	83a080e7          	jalr	-1990(ra) # 5e98 <write>
      if(n != 10){
    1666:	09451563          	bne	a0,s4,16f0 <truncate3+0x10e>
      close(fd);
    166a:	8526                	mv	a0,s1
    166c:	00005097          	auipc	ra,0x5
    1670:	834080e7          	jalr	-1996(ra) # 5ea0 <close>
      fd = open("truncfile", O_RDONLY);
    1674:	4581                	li	a1,0
    1676:	854e                	mv	a0,s3
    1678:	00005097          	auipc	ra,0x5
    167c:	840080e7          	jalr	-1984(ra) # 5eb8 <open>
    1680:	84aa                	mv	s1,a0
      read(fd, buf, sizeof(buf));
    1682:	8662                	mv	a2,s8
    1684:	85e6                	mv	a1,s9
    1686:	00005097          	auipc	ra,0x5
    168a:	80a080e7          	jalr	-2038(ra) # 5e90 <read>
      close(fd);
    168e:	8526                	mv	a0,s1
    1690:	00005097          	auipc	ra,0x5
    1694:	810080e7          	jalr	-2032(ra) # 5ea0 <close>
    for(int i = 0; i < 100; i++){
    1698:	397d                	addiw	s2,s2,-1
    169a:	fa0917e3          	bnez	s2,1648 <truncate3+0x66>
    exit(0);
    169e:	4501                	li	a0,0
    16a0:	00004097          	auipc	ra,0x4
    16a4:	7d8080e7          	jalr	2008(ra) # 5e78 <exit>
    16a8:	fca6                	sd	s1,120(sp)
    16aa:	f8ca                	sd	s2,112(sp)
    16ac:	f4ce                	sd	s3,104(sp)
    16ae:	f0d2                	sd	s4,96(sp)
    16b0:	e8da                	sd	s6,80(sp)
    16b2:	e4de                	sd	s7,72(sp)
    16b4:	e0e2                	sd	s8,64(sp)
    16b6:	fc66                	sd	s9,56(sp)
    printf("%s: fork failed\n", s);
    16b8:	85d6                	mv	a1,s5
    16ba:	00005517          	auipc	a0,0x5
    16be:	5b650513          	addi	a0,a0,1462 # 6c70 <malloc+0x9be>
    16c2:	00005097          	auipc	ra,0x5
    16c6:	b34080e7          	jalr	-1228(ra) # 61f6 <printf>
    exit(1);
    16ca:	4505                	li	a0,1
    16cc:	00004097          	auipc	ra,0x4
    16d0:	7ac080e7          	jalr	1964(ra) # 5e78 <exit>
        printf("%s: open failed\n", s);
    16d4:	85d6                	mv	a1,s5
    16d6:	00005517          	auipc	a0,0x5
    16da:	5b250513          	addi	a0,a0,1458 # 6c88 <malloc+0x9d6>
    16de:	00005097          	auipc	ra,0x5
    16e2:	b18080e7          	jalr	-1256(ra) # 61f6 <printf>
        exit(1);
    16e6:	4505                	li	a0,1
    16e8:	00004097          	auipc	ra,0x4
    16ec:	790080e7          	jalr	1936(ra) # 5e78 <exit>
        printf("%s: write got %d, expected 10\n", s, n);
    16f0:	862a                	mv	a2,a0
    16f2:	85d6                	mv	a1,s5
    16f4:	00005517          	auipc	a0,0x5
    16f8:	5bc50513          	addi	a0,a0,1468 # 6cb0 <malloc+0x9fe>
    16fc:	00005097          	auipc	ra,0x5
    1700:	afa080e7          	jalr	-1286(ra) # 61f6 <printf>
        exit(1);
    1704:	4505                	li	a0,1
    1706:	00004097          	auipc	ra,0x4
    170a:	772080e7          	jalr	1906(ra) # 5e78 <exit>
    170e:	fca6                	sd	s1,120(sp)
    1710:	f8ca                	sd	s2,112(sp)
    1712:	f4ce                	sd	s3,104(sp)
    1714:	f0d2                	sd	s4,96(sp)
    1716:	e8da                	sd	s6,80(sp)
    1718:	e4de                	sd	s7,72(sp)
    171a:	09600913          	li	s2,150
    int fd = open("truncfile", O_CREATE|O_WRONLY|O_TRUNC);
    171e:	60100b13          	li	s6,1537
    1722:	00005a17          	auipc	s4,0x5
    1726:	d1ea0a13          	addi	s4,s4,-738 # 6440 <malloc+0x18e>
    int n = write(fd, "xxx", 3);
    172a:	498d                	li	s3,3
    172c:	00005b97          	auipc	s7,0x5
    1730:	5a4b8b93          	addi	s7,s7,1444 # 6cd0 <malloc+0xa1e>
    int fd = open("truncfile", O_CREATE|O_WRONLY|O_TRUNC);
    1734:	85da                	mv	a1,s6
    1736:	8552                	mv	a0,s4
    1738:	00004097          	auipc	ra,0x4
    173c:	780080e7          	jalr	1920(ra) # 5eb8 <open>
    1740:	84aa                	mv	s1,a0
    if(fd < 0){
    1742:	04054863          	bltz	a0,1792 <truncate3+0x1b0>
    int n = write(fd, "xxx", 3);
    1746:	864e                	mv	a2,s3
    1748:	85de                	mv	a1,s7
    174a:	00004097          	auipc	ra,0x4
    174e:	74e080e7          	jalr	1870(ra) # 5e98 <write>
    if(n != 3){
    1752:	07351063          	bne	a0,s3,17b2 <truncate3+0x1d0>
    close(fd);
    1756:	8526                	mv	a0,s1
    1758:	00004097          	auipc	ra,0x4
    175c:	748080e7          	jalr	1864(ra) # 5ea0 <close>
  for(int i = 0; i < 150; i++){
    1760:	397d                	addiw	s2,s2,-1
    1762:	fc0919e3          	bnez	s2,1734 <truncate3+0x152>
    1766:	e0e2                	sd	s8,64(sp)
    1768:	fc66                	sd	s9,56(sp)
  wait(&xstatus);
    176a:	f9c40513          	addi	a0,s0,-100
    176e:	00004097          	auipc	ra,0x4
    1772:	712080e7          	jalr	1810(ra) # 5e80 <wait>
  unlink("truncfile");
    1776:	00005517          	auipc	a0,0x5
    177a:	cca50513          	addi	a0,a0,-822 # 6440 <malloc+0x18e>
    177e:	00004097          	auipc	ra,0x4
    1782:	74a080e7          	jalr	1866(ra) # 5ec8 <unlink>
  exit(xstatus);
    1786:	f9c42503          	lw	a0,-100(s0)
    178a:	00004097          	auipc	ra,0x4
    178e:	6ee080e7          	jalr	1774(ra) # 5e78 <exit>
    1792:	e0e2                	sd	s8,64(sp)
    1794:	fc66                	sd	s9,56(sp)
      printf("%s: open failed\n", s);
    1796:	85d6                	mv	a1,s5
    1798:	00005517          	auipc	a0,0x5
    179c:	4f050513          	addi	a0,a0,1264 # 6c88 <malloc+0x9d6>
    17a0:	00005097          	auipc	ra,0x5
    17a4:	a56080e7          	jalr	-1450(ra) # 61f6 <printf>
      exit(1);
    17a8:	4505                	li	a0,1
    17aa:	00004097          	auipc	ra,0x4
    17ae:	6ce080e7          	jalr	1742(ra) # 5e78 <exit>
    17b2:	e0e2                	sd	s8,64(sp)
    17b4:	fc66                	sd	s9,56(sp)
      printf("%s: write got %d, expected 3\n", s, n);
    17b6:	862a                	mv	a2,a0
    17b8:	85d6                	mv	a1,s5
    17ba:	00005517          	auipc	a0,0x5
    17be:	51e50513          	addi	a0,a0,1310 # 6cd8 <malloc+0xa26>
    17c2:	00005097          	auipc	ra,0x5
    17c6:	a34080e7          	jalr	-1484(ra) # 61f6 <printf>
      exit(1);
    17ca:	4505                	li	a0,1
    17cc:	00004097          	auipc	ra,0x4
    17d0:	6ac080e7          	jalr	1708(ra) # 5e78 <exit>

00000000000017d4 <exectest>:
{
    17d4:	715d                	addi	sp,sp,-80
    17d6:	e486                	sd	ra,72(sp)
    17d8:	e0a2                	sd	s0,64(sp)
    17da:	f84a                	sd	s2,48(sp)
    17dc:	0880                	addi	s0,sp,80
    17de:	892a                	mv	s2,a0
  char *echoargv[] = { "echo", "OK", 0 };
    17e0:	00005797          	auipc	a5,0x5
    17e4:	c0878793          	addi	a5,a5,-1016 # 63e8 <malloc+0x136>
    17e8:	fcf43023          	sd	a5,-64(s0)
    17ec:	00005797          	auipc	a5,0x5
    17f0:	50c78793          	addi	a5,a5,1292 # 6cf8 <malloc+0xa46>
    17f4:	fcf43423          	sd	a5,-56(s0)
    17f8:	fc043823          	sd	zero,-48(s0)
  unlink("echo-ok");
    17fc:	00005517          	auipc	a0,0x5
    1800:	50450513          	addi	a0,a0,1284 # 6d00 <malloc+0xa4e>
    1804:	00004097          	auipc	ra,0x4
    1808:	6c4080e7          	jalr	1732(ra) # 5ec8 <unlink>
  pid = fork();
    180c:	00004097          	auipc	ra,0x4
    1810:	664080e7          	jalr	1636(ra) # 5e70 <fork>
  if(pid < 0) {
    1814:	04054763          	bltz	a0,1862 <exectest+0x8e>
    1818:	fc26                	sd	s1,56(sp)
    181a:	84aa                	mv	s1,a0
  if(pid == 0) {
    181c:	ed41                	bnez	a0,18b4 <exectest+0xe0>
    close(1);
    181e:	4505                	li	a0,1
    1820:	00004097          	auipc	ra,0x4
    1824:	680080e7          	jalr	1664(ra) # 5ea0 <close>
    fd = open("echo-ok", O_CREATE|O_WRONLY);
    1828:	20100593          	li	a1,513
    182c:	00005517          	auipc	a0,0x5
    1830:	4d450513          	addi	a0,a0,1236 # 6d00 <malloc+0xa4e>
    1834:	00004097          	auipc	ra,0x4
    1838:	684080e7          	jalr	1668(ra) # 5eb8 <open>
    if(fd < 0) {
    183c:	04054263          	bltz	a0,1880 <exectest+0xac>
    if(fd != 1) {
    1840:	4785                	li	a5,1
    1842:	04f50d63          	beq	a0,a5,189c <exectest+0xc8>
      printf("%s: wrong fd\n", s);
    1846:	85ca                	mv	a1,s2
    1848:	00005517          	auipc	a0,0x5
    184c:	4d850513          	addi	a0,a0,1240 # 6d20 <malloc+0xa6e>
    1850:	00005097          	auipc	ra,0x5
    1854:	9a6080e7          	jalr	-1626(ra) # 61f6 <printf>
      exit(1);
    1858:	4505                	li	a0,1
    185a:	00004097          	auipc	ra,0x4
    185e:	61e080e7          	jalr	1566(ra) # 5e78 <exit>
    1862:	fc26                	sd	s1,56(sp)
     printf("%s: fork failed\n", s);
    1864:	85ca                	mv	a1,s2
    1866:	00005517          	auipc	a0,0x5
    186a:	40a50513          	addi	a0,a0,1034 # 6c70 <malloc+0x9be>
    186e:	00005097          	auipc	ra,0x5
    1872:	988080e7          	jalr	-1656(ra) # 61f6 <printf>
     exit(1);
    1876:	4505                	li	a0,1
    1878:	00004097          	auipc	ra,0x4
    187c:	600080e7          	jalr	1536(ra) # 5e78 <exit>
      printf("%s: create failed\n", s);
    1880:	85ca                	mv	a1,s2
    1882:	00005517          	auipc	a0,0x5
    1886:	48650513          	addi	a0,a0,1158 # 6d08 <malloc+0xa56>
    188a:	00005097          	auipc	ra,0x5
    188e:	96c080e7          	jalr	-1684(ra) # 61f6 <printf>
      exit(1);
    1892:	4505                	li	a0,1
    1894:	00004097          	auipc	ra,0x4
    1898:	5e4080e7          	jalr	1508(ra) # 5e78 <exit>
    if(exec("echo", echoargv) < 0){
    189c:	fc040593          	addi	a1,s0,-64
    18a0:	00005517          	auipc	a0,0x5
    18a4:	b4850513          	addi	a0,a0,-1208 # 63e8 <malloc+0x136>
    18a8:	00004097          	auipc	ra,0x4
    18ac:	608080e7          	jalr	1544(ra) # 5eb0 <exec>
    18b0:	02054163          	bltz	a0,18d2 <exectest+0xfe>
  if (wait(&xstatus) != pid) {
    18b4:	fdc40513          	addi	a0,s0,-36
    18b8:	00004097          	auipc	ra,0x4
    18bc:	5c8080e7          	jalr	1480(ra) # 5e80 <wait>
    18c0:	02951763          	bne	a0,s1,18ee <exectest+0x11a>
  if(xstatus != 0)
    18c4:	fdc42503          	lw	a0,-36(s0)
    18c8:	cd0d                	beqz	a0,1902 <exectest+0x12e>
    exit(xstatus);
    18ca:	00004097          	auipc	ra,0x4
    18ce:	5ae080e7          	jalr	1454(ra) # 5e78 <exit>
      printf("%s: exec echo failed\n", s);
    18d2:	85ca                	mv	a1,s2
    18d4:	00005517          	auipc	a0,0x5
    18d8:	45c50513          	addi	a0,a0,1116 # 6d30 <malloc+0xa7e>
    18dc:	00005097          	auipc	ra,0x5
    18e0:	91a080e7          	jalr	-1766(ra) # 61f6 <printf>
      exit(1);
    18e4:	4505                	li	a0,1
    18e6:	00004097          	auipc	ra,0x4
    18ea:	592080e7          	jalr	1426(ra) # 5e78 <exit>
    printf("%s: wait failed!\n", s);
    18ee:	85ca                	mv	a1,s2
    18f0:	00005517          	auipc	a0,0x5
    18f4:	45850513          	addi	a0,a0,1112 # 6d48 <malloc+0xa96>
    18f8:	00005097          	auipc	ra,0x5
    18fc:	8fe080e7          	jalr	-1794(ra) # 61f6 <printf>
    1900:	b7d1                	j	18c4 <exectest+0xf0>
  fd = open("echo-ok", O_RDONLY);
    1902:	4581                	li	a1,0
    1904:	00005517          	auipc	a0,0x5
    1908:	3fc50513          	addi	a0,a0,1020 # 6d00 <malloc+0xa4e>
    190c:	00004097          	auipc	ra,0x4
    1910:	5ac080e7          	jalr	1452(ra) # 5eb8 <open>
  if(fd < 0) {
    1914:	02054a63          	bltz	a0,1948 <exectest+0x174>
  if (read(fd, buf, 2) != 2) {
    1918:	4609                	li	a2,2
    191a:	fb840593          	addi	a1,s0,-72
    191e:	00004097          	auipc	ra,0x4
    1922:	572080e7          	jalr	1394(ra) # 5e90 <read>
    1926:	4789                	li	a5,2
    1928:	02f50e63          	beq	a0,a5,1964 <exectest+0x190>
    printf("%s: read failed\n", s);
    192c:	85ca                	mv	a1,s2
    192e:	00005517          	auipc	a0,0x5
    1932:	e8a50513          	addi	a0,a0,-374 # 67b8 <malloc+0x506>
    1936:	00005097          	auipc	ra,0x5
    193a:	8c0080e7          	jalr	-1856(ra) # 61f6 <printf>
    exit(1);
    193e:	4505                	li	a0,1
    1940:	00004097          	auipc	ra,0x4
    1944:	538080e7          	jalr	1336(ra) # 5e78 <exit>
    printf("%s: open failed\n", s);
    1948:	85ca                	mv	a1,s2
    194a:	00005517          	auipc	a0,0x5
    194e:	33e50513          	addi	a0,a0,830 # 6c88 <malloc+0x9d6>
    1952:	00005097          	auipc	ra,0x5
    1956:	8a4080e7          	jalr	-1884(ra) # 61f6 <printf>
    exit(1);
    195a:	4505                	li	a0,1
    195c:	00004097          	auipc	ra,0x4
    1960:	51c080e7          	jalr	1308(ra) # 5e78 <exit>
  unlink("echo-ok");
    1964:	00005517          	auipc	a0,0x5
    1968:	39c50513          	addi	a0,a0,924 # 6d00 <malloc+0xa4e>
    196c:	00004097          	auipc	ra,0x4
    1970:	55c080e7          	jalr	1372(ra) # 5ec8 <unlink>
  if(buf[0] == 'O' && buf[1] == 'K')
    1974:	fb844703          	lbu	a4,-72(s0)
    1978:	04f00793          	li	a5,79
    197c:	00f71863          	bne	a4,a5,198c <exectest+0x1b8>
    1980:	fb944703          	lbu	a4,-71(s0)
    1984:	04b00793          	li	a5,75
    1988:	02f70063          	beq	a4,a5,19a8 <exectest+0x1d4>
    printf("%s: wrong output\n", s);
    198c:	85ca                	mv	a1,s2
    198e:	00005517          	auipc	a0,0x5
    1992:	3d250513          	addi	a0,a0,978 # 6d60 <malloc+0xaae>
    1996:	00005097          	auipc	ra,0x5
    199a:	860080e7          	jalr	-1952(ra) # 61f6 <printf>
    exit(1);
    199e:	4505                	li	a0,1
    19a0:	00004097          	auipc	ra,0x4
    19a4:	4d8080e7          	jalr	1240(ra) # 5e78 <exit>
    exit(0);
    19a8:	4501                	li	a0,0
    19aa:	00004097          	auipc	ra,0x4
    19ae:	4ce080e7          	jalr	1230(ra) # 5e78 <exit>

00000000000019b2 <pipe1>:
{
    19b2:	711d                	addi	sp,sp,-96
    19b4:	ec86                	sd	ra,88(sp)
    19b6:	e8a2                	sd	s0,80(sp)
    19b8:	e0ca                	sd	s2,64(sp)
    19ba:	1080                	addi	s0,sp,96
    19bc:	892a                	mv	s2,a0
  if(pipe(fds) != 0){
    19be:	fa840513          	addi	a0,s0,-88
    19c2:	00004097          	auipc	ra,0x4
    19c6:	4c6080e7          	jalr	1222(ra) # 5e88 <pipe>
    19ca:	ed2d                	bnez	a0,1a44 <pipe1+0x92>
    19cc:	e4a6                	sd	s1,72(sp)
    19ce:	f852                	sd	s4,48(sp)
    19d0:	84aa                	mv	s1,a0
  pid = fork();
    19d2:	00004097          	auipc	ra,0x4
    19d6:	49e080e7          	jalr	1182(ra) # 5e70 <fork>
    19da:	8a2a                	mv	s4,a0
  if(pid == 0){
    19dc:	c949                	beqz	a0,1a6e <pipe1+0xbc>
  } else if(pid > 0){
    19de:	18a05c63          	blez	a0,1b76 <pipe1+0x1c4>
    19e2:	fc4e                	sd	s3,56(sp)
    19e4:	f456                	sd	s5,40(sp)
    close(fds[1]);
    19e6:	fac42503          	lw	a0,-84(s0)
    19ea:	00004097          	auipc	ra,0x4
    19ee:	4b6080e7          	jalr	1206(ra) # 5ea0 <close>
    total = 0;
    19f2:	8a26                	mv	s4,s1
    cc = 1;
    19f4:	4985                	li	s3,1
    while((n = read(fds[0], buf, cc)) > 0){
    19f6:	0000ba97          	auipc	s5,0xb
    19fa:	282a8a93          	addi	s5,s5,642 # cc78 <buf>
    19fe:	864e                	mv	a2,s3
    1a00:	85d6                	mv	a1,s5
    1a02:	fa842503          	lw	a0,-88(s0)
    1a06:	00004097          	auipc	ra,0x4
    1a0a:	48a080e7          	jalr	1162(ra) # 5e90 <read>
    1a0e:	10a05963          	blez	a0,1b20 <pipe1+0x16e>
    1a12:	0000b717          	auipc	a4,0xb
    1a16:	26670713          	addi	a4,a4,614 # cc78 <buf>
    1a1a:	00a4863b          	addw	a2,s1,a0
        if((buf[i] & 0xff) != (seq++ & 0xff)){
    1a1e:	00074683          	lbu	a3,0(a4)
    1a22:	0ff4f793          	zext.b	a5,s1
    1a26:	2485                	addiw	s1,s1,1
    1a28:	0cf69a63          	bne	a3,a5,1afc <pipe1+0x14a>
      for(i = 0; i < n; i++){
    1a2c:	0705                	addi	a4,a4,1
    1a2e:	fec498e3          	bne	s1,a2,1a1e <pipe1+0x6c>
      total += n;
    1a32:	00aa0a3b          	addw	s4,s4,a0
      cc = cc * 2;
    1a36:	0019999b          	slliw	s3,s3,0x1
      if(cc > sizeof(buf))
    1a3a:	678d                	lui	a5,0x3
    1a3c:	fd37f1e3          	bgeu	a5,s3,19fe <pipe1+0x4c>
        cc = sizeof(buf);
    1a40:	89be                	mv	s3,a5
    1a42:	bf75                	j	19fe <pipe1+0x4c>
    1a44:	e4a6                	sd	s1,72(sp)
    1a46:	fc4e                	sd	s3,56(sp)
    1a48:	f852                	sd	s4,48(sp)
    1a4a:	f456                	sd	s5,40(sp)
    1a4c:	f05a                	sd	s6,32(sp)
    1a4e:	ec5e                	sd	s7,24(sp)
    1a50:	e862                	sd	s8,16(sp)
    printf("%s: pipe() failed\n", s);
    1a52:	85ca                	mv	a1,s2
    1a54:	00005517          	auipc	a0,0x5
    1a58:	32450513          	addi	a0,a0,804 # 6d78 <malloc+0xac6>
    1a5c:	00004097          	auipc	ra,0x4
    1a60:	79a080e7          	jalr	1946(ra) # 61f6 <printf>
    exit(1);
    1a64:	4505                	li	a0,1
    1a66:	00004097          	auipc	ra,0x4
    1a6a:	412080e7          	jalr	1042(ra) # 5e78 <exit>
    1a6e:	fc4e                	sd	s3,56(sp)
    1a70:	f456                	sd	s5,40(sp)
    1a72:	f05a                	sd	s6,32(sp)
    1a74:	ec5e                	sd	s7,24(sp)
    1a76:	e862                	sd	s8,16(sp)
    close(fds[0]);
    1a78:	fa842503          	lw	a0,-88(s0)
    1a7c:	00004097          	auipc	ra,0x4
    1a80:	424080e7          	jalr	1060(ra) # 5ea0 <close>
    for(n = 0; n < N; n++){
    1a84:	0000bb97          	auipc	s7,0xb
    1a88:	1f4b8b93          	addi	s7,s7,500 # cc78 <buf>
    1a8c:	417004bb          	negw	s1,s7
    1a90:	0ff4f493          	zext.b	s1,s1
    1a94:	409b8993          	addi	s3,s7,1033
      if(write(fds[1], buf, SZ) != SZ){
    1a98:	40900a93          	li	s5,1033
    1a9c:	8c5e                	mv	s8,s7
    for(n = 0; n < N; n++){
    1a9e:	6b05                	lui	s6,0x1
    1aa0:	42db0b13          	addi	s6,s6,1069 # 142d <copyinstr2+0x41>
{
    1aa4:	87de                	mv	a5,s7
        buf[i] = seq++;
    1aa6:	0097873b          	addw	a4,a5,s1
    1aaa:	00e78023          	sb	a4,0(a5) # 3000 <sbrklast+0x72>
      for(i = 0; i < SZ; i++)
    1aae:	0785                	addi	a5,a5,1
    1ab0:	ff379be3          	bne	a5,s3,1aa6 <pipe1+0xf4>
    1ab4:	409a0a1b          	addiw	s4,s4,1033
      if(write(fds[1], buf, SZ) != SZ){
    1ab8:	8656                	mv	a2,s5
    1aba:	85e2                	mv	a1,s8
    1abc:	fac42503          	lw	a0,-84(s0)
    1ac0:	00004097          	auipc	ra,0x4
    1ac4:	3d8080e7          	jalr	984(ra) # 5e98 <write>
    1ac8:	01551c63          	bne	a0,s5,1ae0 <pipe1+0x12e>
    for(n = 0; n < N; n++){
    1acc:	24a5                	addiw	s1,s1,9
    1ace:	0ff4f493          	zext.b	s1,s1
    1ad2:	fd6a19e3          	bne	s4,s6,1aa4 <pipe1+0xf2>
    exit(0);
    1ad6:	4501                	li	a0,0
    1ad8:	00004097          	auipc	ra,0x4
    1adc:	3a0080e7          	jalr	928(ra) # 5e78 <exit>
        printf("%s: pipe1 oops 1\n", s);
    1ae0:	85ca                	mv	a1,s2
    1ae2:	00005517          	auipc	a0,0x5
    1ae6:	2ae50513          	addi	a0,a0,686 # 6d90 <malloc+0xade>
    1aea:	00004097          	auipc	ra,0x4
    1aee:	70c080e7          	jalr	1804(ra) # 61f6 <printf>
        exit(1);
    1af2:	4505                	li	a0,1
    1af4:	00004097          	auipc	ra,0x4
    1af8:	384080e7          	jalr	900(ra) # 5e78 <exit>
          printf("%s: pipe1 oops 2\n", s);
    1afc:	85ca                	mv	a1,s2
    1afe:	00005517          	auipc	a0,0x5
    1b02:	2aa50513          	addi	a0,a0,682 # 6da8 <malloc+0xaf6>
    1b06:	00004097          	auipc	ra,0x4
    1b0a:	6f0080e7          	jalr	1776(ra) # 61f6 <printf>
          return;
    1b0e:	64a6                	ld	s1,72(sp)
    1b10:	79e2                	ld	s3,56(sp)
    1b12:	7a42                	ld	s4,48(sp)
    1b14:	7aa2                	ld	s5,40(sp)
}
    1b16:	60e6                	ld	ra,88(sp)
    1b18:	6446                	ld	s0,80(sp)
    1b1a:	6906                	ld	s2,64(sp)
    1b1c:	6125                	addi	sp,sp,96
    1b1e:	8082                	ret
    if(total != N * SZ){
    1b20:	6785                	lui	a5,0x1
    1b22:	42d78793          	addi	a5,a5,1069 # 142d <copyinstr2+0x41>
    1b26:	02fa0363          	beq	s4,a5,1b4c <pipe1+0x19a>
    1b2a:	f05a                	sd	s6,32(sp)
    1b2c:	ec5e                	sd	s7,24(sp)
    1b2e:	e862                	sd	s8,16(sp)
      printf("%s: pipe1 oops 3 total %d\n", total);
    1b30:	85d2                	mv	a1,s4
    1b32:	00005517          	auipc	a0,0x5
    1b36:	28e50513          	addi	a0,a0,654 # 6dc0 <malloc+0xb0e>
    1b3a:	00004097          	auipc	ra,0x4
    1b3e:	6bc080e7          	jalr	1724(ra) # 61f6 <printf>
      exit(1);
    1b42:	4505                	li	a0,1
    1b44:	00004097          	auipc	ra,0x4
    1b48:	334080e7          	jalr	820(ra) # 5e78 <exit>
    1b4c:	f05a                	sd	s6,32(sp)
    1b4e:	ec5e                	sd	s7,24(sp)
    1b50:	e862                	sd	s8,16(sp)
    close(fds[0]);
    1b52:	fa842503          	lw	a0,-88(s0)
    1b56:	00004097          	auipc	ra,0x4
    1b5a:	34a080e7          	jalr	842(ra) # 5ea0 <close>
    wait(&xstatus);
    1b5e:	fa440513          	addi	a0,s0,-92
    1b62:	00004097          	auipc	ra,0x4
    1b66:	31e080e7          	jalr	798(ra) # 5e80 <wait>
    exit(xstatus);
    1b6a:	fa442503          	lw	a0,-92(s0)
    1b6e:	00004097          	auipc	ra,0x4
    1b72:	30a080e7          	jalr	778(ra) # 5e78 <exit>
    1b76:	fc4e                	sd	s3,56(sp)
    1b78:	f456                	sd	s5,40(sp)
    1b7a:	f05a                	sd	s6,32(sp)
    1b7c:	ec5e                	sd	s7,24(sp)
    1b7e:	e862                	sd	s8,16(sp)
    printf("%s: fork() failed\n", s);
    1b80:	85ca                	mv	a1,s2
    1b82:	00005517          	auipc	a0,0x5
    1b86:	25e50513          	addi	a0,a0,606 # 6de0 <malloc+0xb2e>
    1b8a:	00004097          	auipc	ra,0x4
    1b8e:	66c080e7          	jalr	1644(ra) # 61f6 <printf>
    exit(1);
    1b92:	4505                	li	a0,1
    1b94:	00004097          	auipc	ra,0x4
    1b98:	2e4080e7          	jalr	740(ra) # 5e78 <exit>

0000000000001b9c <exitwait>:
{
    1b9c:	715d                	addi	sp,sp,-80
    1b9e:	e486                	sd	ra,72(sp)
    1ba0:	e0a2                	sd	s0,64(sp)
    1ba2:	fc26                	sd	s1,56(sp)
    1ba4:	f84a                	sd	s2,48(sp)
    1ba6:	f44e                	sd	s3,40(sp)
    1ba8:	f052                	sd	s4,32(sp)
    1baa:	ec56                	sd	s5,24(sp)
    1bac:	0880                	addi	s0,sp,80
    1bae:	8aaa                	mv	s5,a0
  for(i = 0; i < 100; i++){
    1bb0:	4901                	li	s2,0
      if(wait(&xstate) != pid){
    1bb2:	fbc40993          	addi	s3,s0,-68
  for(i = 0; i < 100; i++){
    1bb6:	06400a13          	li	s4,100
    pid = fork();
    1bba:	00004097          	auipc	ra,0x4
    1bbe:	2b6080e7          	jalr	694(ra) # 5e70 <fork>
    1bc2:	84aa                	mv	s1,a0
    if(pid < 0){
    1bc4:	02054a63          	bltz	a0,1bf8 <exitwait+0x5c>
    if(pid){
    1bc8:	c151                	beqz	a0,1c4c <exitwait+0xb0>
      if(wait(&xstate) != pid){
    1bca:	854e                	mv	a0,s3
    1bcc:	00004097          	auipc	ra,0x4
    1bd0:	2b4080e7          	jalr	692(ra) # 5e80 <wait>
    1bd4:	04951063          	bne	a0,s1,1c14 <exitwait+0x78>
      if(i != xstate) {
    1bd8:	fbc42783          	lw	a5,-68(s0)
    1bdc:	05279a63          	bne	a5,s2,1c30 <exitwait+0x94>
  for(i = 0; i < 100; i++){
    1be0:	2905                	addiw	s2,s2,1
    1be2:	fd491ce3          	bne	s2,s4,1bba <exitwait+0x1e>
}
    1be6:	60a6                	ld	ra,72(sp)
    1be8:	6406                	ld	s0,64(sp)
    1bea:	74e2                	ld	s1,56(sp)
    1bec:	7942                	ld	s2,48(sp)
    1bee:	79a2                	ld	s3,40(sp)
    1bf0:	7a02                	ld	s4,32(sp)
    1bf2:	6ae2                	ld	s5,24(sp)
    1bf4:	6161                	addi	sp,sp,80
    1bf6:	8082                	ret
      printf("%s: fork failed\n", s);
    1bf8:	85d6                	mv	a1,s5
    1bfa:	00005517          	auipc	a0,0x5
    1bfe:	07650513          	addi	a0,a0,118 # 6c70 <malloc+0x9be>
    1c02:	00004097          	auipc	ra,0x4
    1c06:	5f4080e7          	jalr	1524(ra) # 61f6 <printf>
      exit(1);
    1c0a:	4505                	li	a0,1
    1c0c:	00004097          	auipc	ra,0x4
    1c10:	26c080e7          	jalr	620(ra) # 5e78 <exit>
        printf("%s: wait wrong pid\n", s);
    1c14:	85d6                	mv	a1,s5
    1c16:	00005517          	auipc	a0,0x5
    1c1a:	1e250513          	addi	a0,a0,482 # 6df8 <malloc+0xb46>
    1c1e:	00004097          	auipc	ra,0x4
    1c22:	5d8080e7          	jalr	1496(ra) # 61f6 <printf>
        exit(1);
    1c26:	4505                	li	a0,1
    1c28:	00004097          	auipc	ra,0x4
    1c2c:	250080e7          	jalr	592(ra) # 5e78 <exit>
        printf("%s: wait wrong exit status\n", s);
    1c30:	85d6                	mv	a1,s5
    1c32:	00005517          	auipc	a0,0x5
    1c36:	1de50513          	addi	a0,a0,478 # 6e10 <malloc+0xb5e>
    1c3a:	00004097          	auipc	ra,0x4
    1c3e:	5bc080e7          	jalr	1468(ra) # 61f6 <printf>
        exit(1);
    1c42:	4505                	li	a0,1
    1c44:	00004097          	auipc	ra,0x4
    1c48:	234080e7          	jalr	564(ra) # 5e78 <exit>
      exit(i);
    1c4c:	854a                	mv	a0,s2
    1c4e:	00004097          	auipc	ra,0x4
    1c52:	22a080e7          	jalr	554(ra) # 5e78 <exit>

0000000000001c56 <twochildren>:
{
    1c56:	1101                	addi	sp,sp,-32
    1c58:	ec06                	sd	ra,24(sp)
    1c5a:	e822                	sd	s0,16(sp)
    1c5c:	e426                	sd	s1,8(sp)
    1c5e:	e04a                	sd	s2,0(sp)
    1c60:	1000                	addi	s0,sp,32
    1c62:	892a                	mv	s2,a0
    1c64:	3e800493          	li	s1,1000
    int pid1 = fork();
    1c68:	00004097          	auipc	ra,0x4
    1c6c:	208080e7          	jalr	520(ra) # 5e70 <fork>
    if(pid1 < 0){
    1c70:	02054c63          	bltz	a0,1ca8 <twochildren+0x52>
    if(pid1 == 0){
    1c74:	c921                	beqz	a0,1cc4 <twochildren+0x6e>
      int pid2 = fork();
    1c76:	00004097          	auipc	ra,0x4
    1c7a:	1fa080e7          	jalr	506(ra) # 5e70 <fork>
      if(pid2 < 0){
    1c7e:	04054763          	bltz	a0,1ccc <twochildren+0x76>
      if(pid2 == 0){
    1c82:	c13d                	beqz	a0,1ce8 <twochildren+0x92>
        wait(0);
    1c84:	4501                	li	a0,0
    1c86:	00004097          	auipc	ra,0x4
    1c8a:	1fa080e7          	jalr	506(ra) # 5e80 <wait>
        wait(0);
    1c8e:	4501                	li	a0,0
    1c90:	00004097          	auipc	ra,0x4
    1c94:	1f0080e7          	jalr	496(ra) # 5e80 <wait>
  for(int i = 0; i < 1000; i++){
    1c98:	34fd                	addiw	s1,s1,-1
    1c9a:	f4f9                	bnez	s1,1c68 <twochildren+0x12>
}
    1c9c:	60e2                	ld	ra,24(sp)
    1c9e:	6442                	ld	s0,16(sp)
    1ca0:	64a2                	ld	s1,8(sp)
    1ca2:	6902                	ld	s2,0(sp)
    1ca4:	6105                	addi	sp,sp,32
    1ca6:	8082                	ret
      printf("%s: fork failed\n", s);
    1ca8:	85ca                	mv	a1,s2
    1caa:	00005517          	auipc	a0,0x5
    1cae:	fc650513          	addi	a0,a0,-58 # 6c70 <malloc+0x9be>
    1cb2:	00004097          	auipc	ra,0x4
    1cb6:	544080e7          	jalr	1348(ra) # 61f6 <printf>
      exit(1);
    1cba:	4505                	li	a0,1
    1cbc:	00004097          	auipc	ra,0x4
    1cc0:	1bc080e7          	jalr	444(ra) # 5e78 <exit>
      exit(0);
    1cc4:	00004097          	auipc	ra,0x4
    1cc8:	1b4080e7          	jalr	436(ra) # 5e78 <exit>
        printf("%s: fork failed\n", s);
    1ccc:	85ca                	mv	a1,s2
    1cce:	00005517          	auipc	a0,0x5
    1cd2:	fa250513          	addi	a0,a0,-94 # 6c70 <malloc+0x9be>
    1cd6:	00004097          	auipc	ra,0x4
    1cda:	520080e7          	jalr	1312(ra) # 61f6 <printf>
        exit(1);
    1cde:	4505                	li	a0,1
    1ce0:	00004097          	auipc	ra,0x4
    1ce4:	198080e7          	jalr	408(ra) # 5e78 <exit>
        exit(0);
    1ce8:	00004097          	auipc	ra,0x4
    1cec:	190080e7          	jalr	400(ra) # 5e78 <exit>

0000000000001cf0 <forkfork>:
{
    1cf0:	7179                	addi	sp,sp,-48
    1cf2:	f406                	sd	ra,40(sp)
    1cf4:	f022                	sd	s0,32(sp)
    1cf6:	ec26                	sd	s1,24(sp)
    1cf8:	1800                	addi	s0,sp,48
    1cfa:	84aa                	mv	s1,a0
    int pid = fork();
    1cfc:	00004097          	auipc	ra,0x4
    1d00:	174080e7          	jalr	372(ra) # 5e70 <fork>
    if(pid < 0){
    1d04:	04054163          	bltz	a0,1d46 <forkfork+0x56>
    if(pid == 0){
    1d08:	cd29                	beqz	a0,1d62 <forkfork+0x72>
    int pid = fork();
    1d0a:	00004097          	auipc	ra,0x4
    1d0e:	166080e7          	jalr	358(ra) # 5e70 <fork>
    if(pid < 0){
    1d12:	02054a63          	bltz	a0,1d46 <forkfork+0x56>
    if(pid == 0){
    1d16:	c531                	beqz	a0,1d62 <forkfork+0x72>
    wait(&xstatus);
    1d18:	fdc40513          	addi	a0,s0,-36
    1d1c:	00004097          	auipc	ra,0x4
    1d20:	164080e7          	jalr	356(ra) # 5e80 <wait>
    if(xstatus != 0) {
    1d24:	fdc42783          	lw	a5,-36(s0)
    1d28:	ebbd                	bnez	a5,1d9e <forkfork+0xae>
    wait(&xstatus);
    1d2a:	fdc40513          	addi	a0,s0,-36
    1d2e:	00004097          	auipc	ra,0x4
    1d32:	152080e7          	jalr	338(ra) # 5e80 <wait>
    if(xstatus != 0) {
    1d36:	fdc42783          	lw	a5,-36(s0)
    1d3a:	e3b5                	bnez	a5,1d9e <forkfork+0xae>
}
    1d3c:	70a2                	ld	ra,40(sp)
    1d3e:	7402                	ld	s0,32(sp)
    1d40:	64e2                	ld	s1,24(sp)
    1d42:	6145                	addi	sp,sp,48
    1d44:	8082                	ret
      printf("%s: fork failed", s);
    1d46:	85a6                	mv	a1,s1
    1d48:	00005517          	auipc	a0,0x5
    1d4c:	0e850513          	addi	a0,a0,232 # 6e30 <malloc+0xb7e>
    1d50:	00004097          	auipc	ra,0x4
    1d54:	4a6080e7          	jalr	1190(ra) # 61f6 <printf>
      exit(1);
    1d58:	4505                	li	a0,1
    1d5a:	00004097          	auipc	ra,0x4
    1d5e:	11e080e7          	jalr	286(ra) # 5e78 <exit>
{
    1d62:	0c800493          	li	s1,200
        int pid1 = fork();
    1d66:	00004097          	auipc	ra,0x4
    1d6a:	10a080e7          	jalr	266(ra) # 5e70 <fork>
        if(pid1 < 0){
    1d6e:	00054f63          	bltz	a0,1d8c <forkfork+0x9c>
        if(pid1 == 0){
    1d72:	c115                	beqz	a0,1d96 <forkfork+0xa6>
        wait(0);
    1d74:	4501                	li	a0,0
    1d76:	00004097          	auipc	ra,0x4
    1d7a:	10a080e7          	jalr	266(ra) # 5e80 <wait>
      for(int j = 0; j < 200; j++){
    1d7e:	34fd                	addiw	s1,s1,-1
    1d80:	f0fd                	bnez	s1,1d66 <forkfork+0x76>
      exit(0);
    1d82:	4501                	li	a0,0
    1d84:	00004097          	auipc	ra,0x4
    1d88:	0f4080e7          	jalr	244(ra) # 5e78 <exit>
          exit(1);
    1d8c:	4505                	li	a0,1
    1d8e:	00004097          	auipc	ra,0x4
    1d92:	0ea080e7          	jalr	234(ra) # 5e78 <exit>
          exit(0);
    1d96:	00004097          	auipc	ra,0x4
    1d9a:	0e2080e7          	jalr	226(ra) # 5e78 <exit>
      printf("%s: fork in child failed", s);
    1d9e:	85a6                	mv	a1,s1
    1da0:	00005517          	auipc	a0,0x5
    1da4:	0a050513          	addi	a0,a0,160 # 6e40 <malloc+0xb8e>
    1da8:	00004097          	auipc	ra,0x4
    1dac:	44e080e7          	jalr	1102(ra) # 61f6 <printf>
      exit(1);
    1db0:	4505                	li	a0,1
    1db2:	00004097          	auipc	ra,0x4
    1db6:	0c6080e7          	jalr	198(ra) # 5e78 <exit>

0000000000001dba <reparent2>:
{
    1dba:	1101                	addi	sp,sp,-32
    1dbc:	ec06                	sd	ra,24(sp)
    1dbe:	e822                	sd	s0,16(sp)
    1dc0:	e426                	sd	s1,8(sp)
    1dc2:	1000                	addi	s0,sp,32
    1dc4:	32000493          	li	s1,800
    int pid1 = fork();
    1dc8:	00004097          	auipc	ra,0x4
    1dcc:	0a8080e7          	jalr	168(ra) # 5e70 <fork>
    if(pid1 < 0){
    1dd0:	00054f63          	bltz	a0,1dee <reparent2+0x34>
    if(pid1 == 0){
    1dd4:	c915                	beqz	a0,1e08 <reparent2+0x4e>
    wait(0);
    1dd6:	4501                	li	a0,0
    1dd8:	00004097          	auipc	ra,0x4
    1ddc:	0a8080e7          	jalr	168(ra) # 5e80 <wait>
  for(int i = 0; i < 800; i++){
    1de0:	34fd                	addiw	s1,s1,-1
    1de2:	f0fd                	bnez	s1,1dc8 <reparent2+0xe>
  exit(0);
    1de4:	4501                	li	a0,0
    1de6:	00004097          	auipc	ra,0x4
    1dea:	092080e7          	jalr	146(ra) # 5e78 <exit>
      printf("fork failed\n");
    1dee:	00005517          	auipc	a0,0x5
    1df2:	28a50513          	addi	a0,a0,650 # 7078 <malloc+0xdc6>
    1df6:	00004097          	auipc	ra,0x4
    1dfa:	400080e7          	jalr	1024(ra) # 61f6 <printf>
      exit(1);
    1dfe:	4505                	li	a0,1
    1e00:	00004097          	auipc	ra,0x4
    1e04:	078080e7          	jalr	120(ra) # 5e78 <exit>
      fork();
    1e08:	00004097          	auipc	ra,0x4
    1e0c:	068080e7          	jalr	104(ra) # 5e70 <fork>
      fork();
    1e10:	00004097          	auipc	ra,0x4
    1e14:	060080e7          	jalr	96(ra) # 5e70 <fork>
      exit(0);
    1e18:	4501                	li	a0,0
    1e1a:	00004097          	auipc	ra,0x4
    1e1e:	05e080e7          	jalr	94(ra) # 5e78 <exit>

0000000000001e22 <createdelete>:
{
    1e22:	7175                	addi	sp,sp,-144
    1e24:	e506                	sd	ra,136(sp)
    1e26:	e122                	sd	s0,128(sp)
    1e28:	fca6                	sd	s1,120(sp)
    1e2a:	f8ca                	sd	s2,112(sp)
    1e2c:	f4ce                	sd	s3,104(sp)
    1e2e:	f0d2                	sd	s4,96(sp)
    1e30:	ecd6                	sd	s5,88(sp)
    1e32:	e8da                	sd	s6,80(sp)
    1e34:	e4de                	sd	s7,72(sp)
    1e36:	e0e2                	sd	s8,64(sp)
    1e38:	fc66                	sd	s9,56(sp)
    1e3a:	f86a                	sd	s10,48(sp)
    1e3c:	0900                	addi	s0,sp,144
    1e3e:	8d2a                	mv	s10,a0
  for(pi = 0; pi < NCHILD; pi++){
    1e40:	4901                	li	s2,0
    1e42:	4991                	li	s3,4
    pid = fork();
    1e44:	00004097          	auipc	ra,0x4
    1e48:	02c080e7          	jalr	44(ra) # 5e70 <fork>
    1e4c:	84aa                	mv	s1,a0
    if(pid < 0){
    1e4e:	04054063          	bltz	a0,1e8e <createdelete+0x6c>
    if(pid == 0){
    1e52:	cd21                	beqz	a0,1eaa <createdelete+0x88>
  for(pi = 0; pi < NCHILD; pi++){
    1e54:	2905                	addiw	s2,s2,1
    1e56:	ff3917e3          	bne	s2,s3,1e44 <createdelete+0x22>
    1e5a:	4491                	li	s1,4
    wait(&xstatus);
    1e5c:	f7c40993          	addi	s3,s0,-132
    1e60:	854e                	mv	a0,s3
    1e62:	00004097          	auipc	ra,0x4
    1e66:	01e080e7          	jalr	30(ra) # 5e80 <wait>
    if(xstatus != 0)
    1e6a:	f7c42903          	lw	s2,-132(s0)
    1e6e:	0e091463          	bnez	s2,1f56 <createdelete+0x134>
  for(pi = 0; pi < NCHILD; pi++){
    1e72:	34fd                	addiw	s1,s1,-1
    1e74:	f4f5                	bnez	s1,1e60 <createdelete+0x3e>
  name[0] = name[1] = name[2] = 0;
    1e76:	f8040123          	sb	zero,-126(s0)
    1e7a:	03000993          	li	s3,48
    1e7e:	5afd                	li	s5,-1
    1e80:	07000c93          	li	s9,112
      if((i == 0 || i >= N/2) && fd < 0){
    1e84:	4ba5                	li	s7,9
      } else if((i >= 1 && i < N/2) && fd >= 0){
    1e86:	4c21                	li	s8,8
    for(pi = 0; pi < NCHILD; pi++){
    1e88:	07400b13          	li	s6,116
    1e8c:	a295                	j	1ff0 <createdelete+0x1ce>
      printf("fork failed\n", s);
    1e8e:	85ea                	mv	a1,s10
    1e90:	00005517          	auipc	a0,0x5
    1e94:	1e850513          	addi	a0,a0,488 # 7078 <malloc+0xdc6>
    1e98:	00004097          	auipc	ra,0x4
    1e9c:	35e080e7          	jalr	862(ra) # 61f6 <printf>
      exit(1);
    1ea0:	4505                	li	a0,1
    1ea2:	00004097          	auipc	ra,0x4
    1ea6:	fd6080e7          	jalr	-42(ra) # 5e78 <exit>
      name[0] = 'p' + pi;
    1eaa:	0709091b          	addiw	s2,s2,112
    1eae:	f9240023          	sb	s2,-128(s0)
      name[2] = '\0';
    1eb2:	f8040123          	sb	zero,-126(s0)
        fd = open(name, O_CREATE | O_RDWR);
    1eb6:	f8040913          	addi	s2,s0,-128
    1eba:	20200993          	li	s3,514
      for(i = 0; i < N; i++){
    1ebe:	4a51                	li	s4,20
    1ec0:	a081                	j	1f00 <createdelete+0xde>
          printf("%s: create failed\n", s);
    1ec2:	85ea                	mv	a1,s10
    1ec4:	00005517          	auipc	a0,0x5
    1ec8:	e4450513          	addi	a0,a0,-444 # 6d08 <malloc+0xa56>
    1ecc:	00004097          	auipc	ra,0x4
    1ed0:	32a080e7          	jalr	810(ra) # 61f6 <printf>
          exit(1);
    1ed4:	4505                	li	a0,1
    1ed6:	00004097          	auipc	ra,0x4
    1eda:	fa2080e7          	jalr	-94(ra) # 5e78 <exit>
          name[1] = '0' + (i / 2);
    1ede:	01f4d79b          	srliw	a5,s1,0x1f
    1ee2:	9fa5                	addw	a5,a5,s1
    1ee4:	4017d79b          	sraiw	a5,a5,0x1
    1ee8:	0307879b          	addiw	a5,a5,48
    1eec:	f8f400a3          	sb	a5,-127(s0)
          if(unlink(name) < 0){
    1ef0:	854a                	mv	a0,s2
    1ef2:	00004097          	auipc	ra,0x4
    1ef6:	fd6080e7          	jalr	-42(ra) # 5ec8 <unlink>
    1efa:	04054063          	bltz	a0,1f3a <createdelete+0x118>
      for(i = 0; i < N; i++){
    1efe:	2485                	addiw	s1,s1,1
        name[1] = '0' + i;
    1f00:	0304879b          	addiw	a5,s1,48
    1f04:	f8f400a3          	sb	a5,-127(s0)
        fd = open(name, O_CREATE | O_RDWR);
    1f08:	85ce                	mv	a1,s3
    1f0a:	854a                	mv	a0,s2
    1f0c:	00004097          	auipc	ra,0x4
    1f10:	fac080e7          	jalr	-84(ra) # 5eb8 <open>
        if(fd < 0){
    1f14:	fa0547e3          	bltz	a0,1ec2 <createdelete+0xa0>
        close(fd);
    1f18:	00004097          	auipc	ra,0x4
    1f1c:	f88080e7          	jalr	-120(ra) # 5ea0 <close>
        if(i > 0 && (i % 2 ) == 0){
    1f20:	fc905fe3          	blez	s1,1efe <createdelete+0xdc>
    1f24:	0014f793          	andi	a5,s1,1
    1f28:	dbdd                	beqz	a5,1ede <createdelete+0xbc>
      for(i = 0; i < N; i++){
    1f2a:	2485                	addiw	s1,s1,1
    1f2c:	fd449ae3          	bne	s1,s4,1f00 <createdelete+0xde>
      exit(0);
    1f30:	4501                	li	a0,0
    1f32:	00004097          	auipc	ra,0x4
    1f36:	f46080e7          	jalr	-186(ra) # 5e78 <exit>
            printf("%s: unlink failed\n", s);
    1f3a:	85ea                	mv	a1,s10
    1f3c:	00005517          	auipc	a0,0x5
    1f40:	f2450513          	addi	a0,a0,-220 # 6e60 <malloc+0xbae>
    1f44:	00004097          	auipc	ra,0x4
    1f48:	2b2080e7          	jalr	690(ra) # 61f6 <printf>
            exit(1);
    1f4c:	4505                	li	a0,1
    1f4e:	00004097          	auipc	ra,0x4
    1f52:	f2a080e7          	jalr	-214(ra) # 5e78 <exit>
      exit(1);
    1f56:	4505                	li	a0,1
    1f58:	00004097          	auipc	ra,0x4
    1f5c:	f20080e7          	jalr	-224(ra) # 5e78 <exit>
        printf("%s: oops createdelete %s didn't exist\n", s, name);
    1f60:	f8040613          	addi	a2,s0,-128
    1f64:	85ea                	mv	a1,s10
    1f66:	00005517          	auipc	a0,0x5
    1f6a:	f1250513          	addi	a0,a0,-238 # 6e78 <malloc+0xbc6>
    1f6e:	00004097          	auipc	ra,0x4
    1f72:	288080e7          	jalr	648(ra) # 61f6 <printf>
        exit(1);
    1f76:	4505                	li	a0,1
    1f78:	00004097          	auipc	ra,0x4
    1f7c:	f00080e7          	jalr	-256(ra) # 5e78 <exit>
      } else if((i >= 1 && i < N/2) && fd >= 0){
    1f80:	035c7e63          	bgeu	s8,s5,1fbc <createdelete+0x19a>
      if(fd >= 0)
    1f84:	02055763          	bgez	a0,1fb2 <createdelete+0x190>
    for(pi = 0; pi < NCHILD; pi++){
    1f88:	2485                	addiw	s1,s1,1
    1f8a:	0ff4f493          	zext.b	s1,s1
    1f8e:	05648963          	beq	s1,s6,1fe0 <createdelete+0x1be>
      name[0] = 'p' + pi;
    1f92:	f8940023          	sb	s1,-128(s0)
      name[1] = '0' + i;
    1f96:	f93400a3          	sb	s3,-127(s0)
      fd = open(name, 0);
    1f9a:	4581                	li	a1,0
    1f9c:	8552                	mv	a0,s4
    1f9e:	00004097          	auipc	ra,0x4
    1fa2:	f1a080e7          	jalr	-230(ra) # 5eb8 <open>
      if((i == 0 || i >= N/2) && fd < 0){
    1fa6:	00090463          	beqz	s2,1fae <createdelete+0x18c>
    1faa:	fd2bdbe3          	bge	s7,s2,1f80 <createdelete+0x15e>
    1fae:	fa0549e3          	bltz	a0,1f60 <createdelete+0x13e>
        close(fd);
    1fb2:	00004097          	auipc	ra,0x4
    1fb6:	eee080e7          	jalr	-274(ra) # 5ea0 <close>
    1fba:	b7f9                	j	1f88 <createdelete+0x166>
      } else if((i >= 1 && i < N/2) && fd >= 0){
    1fbc:	fc0546e3          	bltz	a0,1f88 <createdelete+0x166>
        printf("%s: oops createdelete %s did exist\n", s, name);
    1fc0:	f8040613          	addi	a2,s0,-128
    1fc4:	85ea                	mv	a1,s10
    1fc6:	00005517          	auipc	a0,0x5
    1fca:	eda50513          	addi	a0,a0,-294 # 6ea0 <malloc+0xbee>
    1fce:	00004097          	auipc	ra,0x4
    1fd2:	228080e7          	jalr	552(ra) # 61f6 <printf>
        exit(1);
    1fd6:	4505                	li	a0,1
    1fd8:	00004097          	auipc	ra,0x4
    1fdc:	ea0080e7          	jalr	-352(ra) # 5e78 <exit>
  for(i = 0; i < N; i++){
    1fe0:	2905                	addiw	s2,s2,1
    1fe2:	2a85                	addiw	s5,s5,1
    1fe4:	2985                	addiw	s3,s3,1
    1fe6:	0ff9f993          	zext.b	s3,s3
    1fea:	47d1                	li	a5,20
    1fec:	00f90663          	beq	s2,a5,1ff8 <createdelete+0x1d6>
    for(pi = 0; pi < NCHILD; pi++){
    1ff0:	84e6                	mv	s1,s9
      fd = open(name, 0);
    1ff2:	f8040a13          	addi	s4,s0,-128
    1ff6:	bf71                	j	1f92 <createdelete+0x170>
    1ff8:	03000993          	li	s3,48
    1ffc:	07000913          	li	s2,112
  name[0] = name[1] = name[2] = 0;
    2000:	4b11                	li	s6,4
      unlink(name);
    2002:	f8040a13          	addi	s4,s0,-128
  for(i = 0; i < N; i++){
    2006:	08400a93          	li	s5,132
  name[0] = name[1] = name[2] = 0;
    200a:	84da                	mv	s1,s6
      name[0] = 'p' + i;
    200c:	f9240023          	sb	s2,-128(s0)
      name[1] = '0' + i;
    2010:	f93400a3          	sb	s3,-127(s0)
      unlink(name);
    2014:	8552                	mv	a0,s4
    2016:	00004097          	auipc	ra,0x4
    201a:	eb2080e7          	jalr	-334(ra) # 5ec8 <unlink>
    for(pi = 0; pi < NCHILD; pi++){
    201e:	34fd                	addiw	s1,s1,-1
    2020:	f4f5                	bnez	s1,200c <createdelete+0x1ea>
  for(i = 0; i < N; i++){
    2022:	2905                	addiw	s2,s2,1
    2024:	0ff97913          	zext.b	s2,s2
    2028:	2985                	addiw	s3,s3,1
    202a:	0ff9f993          	zext.b	s3,s3
    202e:	fd591ee3          	bne	s2,s5,200a <createdelete+0x1e8>
}
    2032:	60aa                	ld	ra,136(sp)
    2034:	640a                	ld	s0,128(sp)
    2036:	74e6                	ld	s1,120(sp)
    2038:	7946                	ld	s2,112(sp)
    203a:	79a6                	ld	s3,104(sp)
    203c:	7a06                	ld	s4,96(sp)
    203e:	6ae6                	ld	s5,88(sp)
    2040:	6b46                	ld	s6,80(sp)
    2042:	6ba6                	ld	s7,72(sp)
    2044:	6c06                	ld	s8,64(sp)
    2046:	7ce2                	ld	s9,56(sp)
    2048:	7d42                	ld	s10,48(sp)
    204a:	6149                	addi	sp,sp,144
    204c:	8082                	ret

000000000000204e <linkunlink>:
{
    204e:	711d                	addi	sp,sp,-96
    2050:	ec86                	sd	ra,88(sp)
    2052:	e8a2                	sd	s0,80(sp)
    2054:	e4a6                	sd	s1,72(sp)
    2056:	e0ca                	sd	s2,64(sp)
    2058:	fc4e                	sd	s3,56(sp)
    205a:	f852                	sd	s4,48(sp)
    205c:	f456                	sd	s5,40(sp)
    205e:	f05a                	sd	s6,32(sp)
    2060:	ec5e                	sd	s7,24(sp)
    2062:	e862                	sd	s8,16(sp)
    2064:	e466                	sd	s9,8(sp)
    2066:	e06a                	sd	s10,0(sp)
    2068:	1080                	addi	s0,sp,96
    206a:	84aa                	mv	s1,a0
  unlink("x");
    206c:	00004517          	auipc	a0,0x4
    2070:	3ec50513          	addi	a0,a0,1004 # 6458 <malloc+0x1a6>
    2074:	00004097          	auipc	ra,0x4
    2078:	e54080e7          	jalr	-428(ra) # 5ec8 <unlink>
  pid = fork();
    207c:	00004097          	auipc	ra,0x4
    2080:	df4080e7          	jalr	-524(ra) # 5e70 <fork>
  if(pid < 0){
    2084:	04054363          	bltz	a0,20ca <linkunlink+0x7c>
    2088:	8d2a                	mv	s10,a0
  unsigned int x = (pid ? 1 : 97);
    208a:	06100913          	li	s2,97
    208e:	c111                	beqz	a0,2092 <linkunlink+0x44>
    2090:	4905                	li	s2,1
    2092:	06400493          	li	s1,100
    x = x * 1103515245 + 12345;
    2096:	41c65ab7          	lui	s5,0x41c65
    209a:	e6da8a9b          	addiw	s5,s5,-403 # 41c64e6d <base+0x41c551f5>
    209e:	6a0d                	lui	s4,0x3
    20a0:	039a0a1b          	addiw	s4,s4,57 # 3039 <sbrklast+0xab>
    if((x % 3) == 0){
    20a4:	000ab9b7          	lui	s3,0xab
    20a8:	aab98993          	addi	s3,s3,-1365 # aaaab <base+0x9ae33>
    20ac:	09b2                	slli	s3,s3,0xc
    20ae:	aab98993          	addi	s3,s3,-1365
    } else if((x % 3) == 1){
    20b2:	4b85                	li	s7,1
      unlink("x");
    20b4:	00004b17          	auipc	s6,0x4
    20b8:	3a4b0b13          	addi	s6,s6,932 # 6458 <malloc+0x1a6>
      link("cat", "x");
    20bc:	00005c97          	auipc	s9,0x5
    20c0:	e0cc8c93          	addi	s9,s9,-500 # 6ec8 <malloc+0xc16>
      close(open("x", O_RDWR | O_CREATE));
    20c4:	20200c13          	li	s8,514
    20c8:	a089                	j	210a <linkunlink+0xbc>
    printf("%s: fork failed\n", s);
    20ca:	85a6                	mv	a1,s1
    20cc:	00005517          	auipc	a0,0x5
    20d0:	ba450513          	addi	a0,a0,-1116 # 6c70 <malloc+0x9be>
    20d4:	00004097          	auipc	ra,0x4
    20d8:	122080e7          	jalr	290(ra) # 61f6 <printf>
    exit(1);
    20dc:	4505                	li	a0,1
    20de:	00004097          	auipc	ra,0x4
    20e2:	d9a080e7          	jalr	-614(ra) # 5e78 <exit>
      close(open("x", O_RDWR | O_CREATE));
    20e6:	85e2                	mv	a1,s8
    20e8:	855a                	mv	a0,s6
    20ea:	00004097          	auipc	ra,0x4
    20ee:	dce080e7          	jalr	-562(ra) # 5eb8 <open>
    20f2:	00004097          	auipc	ra,0x4
    20f6:	dae080e7          	jalr	-594(ra) # 5ea0 <close>
    20fa:	a031                	j	2106 <linkunlink+0xb8>
      unlink("x");
    20fc:	855a                	mv	a0,s6
    20fe:	00004097          	auipc	ra,0x4
    2102:	dca080e7          	jalr	-566(ra) # 5ec8 <unlink>
  for(i = 0; i < 100; i++){
    2106:	34fd                	addiw	s1,s1,-1
    2108:	c895                	beqz	s1,213c <linkunlink+0xee>
    x = x * 1103515245 + 12345;
    210a:	035907bb          	mulw	a5,s2,s5
    210e:	00fa07bb          	addw	a5,s4,a5
    2112:	893e                	mv	s2,a5
    if((x % 3) == 0){
    2114:	02079713          	slli	a4,a5,0x20
    2118:	9301                	srli	a4,a4,0x20
    211a:	03370733          	mul	a4,a4,s3
    211e:	9305                	srli	a4,a4,0x21
    2120:	0017169b          	slliw	a3,a4,0x1
    2124:	9f35                	addw	a4,a4,a3
    2126:	9f99                	subw	a5,a5,a4
    2128:	dfdd                	beqz	a5,20e6 <linkunlink+0x98>
    } else if((x % 3) == 1){
    212a:	fd7799e3          	bne	a5,s7,20fc <linkunlink+0xae>
      link("cat", "x");
    212e:	85da                	mv	a1,s6
    2130:	8566                	mv	a0,s9
    2132:	00004097          	auipc	ra,0x4
    2136:	da6080e7          	jalr	-602(ra) # 5ed8 <link>
    213a:	b7f1                	j	2106 <linkunlink+0xb8>
  if(pid)
    213c:	020d0563          	beqz	s10,2166 <linkunlink+0x118>
    wait(0);
    2140:	4501                	li	a0,0
    2142:	00004097          	auipc	ra,0x4
    2146:	d3e080e7          	jalr	-706(ra) # 5e80 <wait>
}
    214a:	60e6                	ld	ra,88(sp)
    214c:	6446                	ld	s0,80(sp)
    214e:	64a6                	ld	s1,72(sp)
    2150:	6906                	ld	s2,64(sp)
    2152:	79e2                	ld	s3,56(sp)
    2154:	7a42                	ld	s4,48(sp)
    2156:	7aa2                	ld	s5,40(sp)
    2158:	7b02                	ld	s6,32(sp)
    215a:	6be2                	ld	s7,24(sp)
    215c:	6c42                	ld	s8,16(sp)
    215e:	6ca2                	ld	s9,8(sp)
    2160:	6d02                	ld	s10,0(sp)
    2162:	6125                	addi	sp,sp,96
    2164:	8082                	ret
    exit(0);
    2166:	4501                	li	a0,0
    2168:	00004097          	auipc	ra,0x4
    216c:	d10080e7          	jalr	-752(ra) # 5e78 <exit>

0000000000002170 <forktest>:
{
    2170:	7179                	addi	sp,sp,-48
    2172:	f406                	sd	ra,40(sp)
    2174:	f022                	sd	s0,32(sp)
    2176:	ec26                	sd	s1,24(sp)
    2178:	e84a                	sd	s2,16(sp)
    217a:	e44e                	sd	s3,8(sp)
    217c:	1800                	addi	s0,sp,48
    217e:	89aa                	mv	s3,a0
  for(n=0; n<N; n++){
    2180:	4481                	li	s1,0
    2182:	3e800913          	li	s2,1000
    pid = fork();
    2186:	00004097          	auipc	ra,0x4
    218a:	cea080e7          	jalr	-790(ra) # 5e70 <fork>
    if(pid < 0)
    218e:	08054263          	bltz	a0,2212 <forktest+0xa2>
    if(pid == 0)
    2192:	c115                	beqz	a0,21b6 <forktest+0x46>
  for(n=0; n<N; n++){
    2194:	2485                	addiw	s1,s1,1
    2196:	ff2498e3          	bne	s1,s2,2186 <forktest+0x16>
    printf("%s: fork claimed to work 1000 times!\n", s);
    219a:	85ce                	mv	a1,s3
    219c:	00005517          	auipc	a0,0x5
    21a0:	d7c50513          	addi	a0,a0,-644 # 6f18 <malloc+0xc66>
    21a4:	00004097          	auipc	ra,0x4
    21a8:	052080e7          	jalr	82(ra) # 61f6 <printf>
    exit(1);
    21ac:	4505                	li	a0,1
    21ae:	00004097          	auipc	ra,0x4
    21b2:	cca080e7          	jalr	-822(ra) # 5e78 <exit>
      exit(0);
    21b6:	00004097          	auipc	ra,0x4
    21ba:	cc2080e7          	jalr	-830(ra) # 5e78 <exit>
    printf("%s: no fork at all!\n", s);
    21be:	85ce                	mv	a1,s3
    21c0:	00005517          	auipc	a0,0x5
    21c4:	d1050513          	addi	a0,a0,-752 # 6ed0 <malloc+0xc1e>
    21c8:	00004097          	auipc	ra,0x4
    21cc:	02e080e7          	jalr	46(ra) # 61f6 <printf>
    exit(1);
    21d0:	4505                	li	a0,1
    21d2:	00004097          	auipc	ra,0x4
    21d6:	ca6080e7          	jalr	-858(ra) # 5e78 <exit>
      printf("%s: wait stopped early\n", s);
    21da:	85ce                	mv	a1,s3
    21dc:	00005517          	auipc	a0,0x5
    21e0:	d0c50513          	addi	a0,a0,-756 # 6ee8 <malloc+0xc36>
    21e4:	00004097          	auipc	ra,0x4
    21e8:	012080e7          	jalr	18(ra) # 61f6 <printf>
      exit(1);
    21ec:	4505                	li	a0,1
    21ee:	00004097          	auipc	ra,0x4
    21f2:	c8a080e7          	jalr	-886(ra) # 5e78 <exit>
    printf("%s: wait got too many\n", s);
    21f6:	85ce                	mv	a1,s3
    21f8:	00005517          	auipc	a0,0x5
    21fc:	d0850513          	addi	a0,a0,-760 # 6f00 <malloc+0xc4e>
    2200:	00004097          	auipc	ra,0x4
    2204:	ff6080e7          	jalr	-10(ra) # 61f6 <printf>
    exit(1);
    2208:	4505                	li	a0,1
    220a:	00004097          	auipc	ra,0x4
    220e:	c6e080e7          	jalr	-914(ra) # 5e78 <exit>
  if (n == 0) {
    2212:	d4d5                	beqz	s1,21be <forktest+0x4e>
    if(wait(0) < 0){
    2214:	4501                	li	a0,0
    2216:	00004097          	auipc	ra,0x4
    221a:	c6a080e7          	jalr	-918(ra) # 5e80 <wait>
    221e:	fa054ee3          	bltz	a0,21da <forktest+0x6a>
  for(; n > 0; n--){
    2222:	34fd                	addiw	s1,s1,-1
    2224:	fe9048e3          	bgtz	s1,2214 <forktest+0xa4>
  if(wait(0) != -1){
    2228:	4501                	li	a0,0
    222a:	00004097          	auipc	ra,0x4
    222e:	c56080e7          	jalr	-938(ra) # 5e80 <wait>
    2232:	57fd                	li	a5,-1
    2234:	fcf511e3          	bne	a0,a5,21f6 <forktest+0x86>
}
    2238:	70a2                	ld	ra,40(sp)
    223a:	7402                	ld	s0,32(sp)
    223c:	64e2                	ld	s1,24(sp)
    223e:	6942                	ld	s2,16(sp)
    2240:	69a2                	ld	s3,8(sp)
    2242:	6145                	addi	sp,sp,48
    2244:	8082                	ret

0000000000002246 <kernmem>:
{
    2246:	715d                	addi	sp,sp,-80
    2248:	e486                	sd	ra,72(sp)
    224a:	e0a2                	sd	s0,64(sp)
    224c:	fc26                	sd	s1,56(sp)
    224e:	f84a                	sd	s2,48(sp)
    2250:	f44e                	sd	s3,40(sp)
    2252:	f052                	sd	s4,32(sp)
    2254:	ec56                	sd	s5,24(sp)
    2256:	e85a                	sd	s6,16(sp)
    2258:	0880                	addi	s0,sp,80
    225a:	8b2a                	mv	s6,a0
  for(a = (char*)(KERNBASE); a < (char*) (KERNBASE+2000000); a += 50000){
    225c:	4485                	li	s1,1
    225e:	04fe                	slli	s1,s1,0x1f
    wait(&xstatus);
    2260:	fbc40a93          	addi	s5,s0,-68
    if(xstatus != -1)  // did kernel kill child?
    2264:	5a7d                	li	s4,-1
  for(a = (char*)(KERNBASE); a < (char*) (KERNBASE+2000000); a += 50000){
    2266:	69b1                	lui	s3,0xc
    2268:	35098993          	addi	s3,s3,848 # c350 <uninit+0x1de8>
    226c:	1003d937          	lui	s2,0x1003d
    2270:	090e                	slli	s2,s2,0x3
    2272:	48090913          	addi	s2,s2,1152 # 1003d480 <base+0x1002d808>
    pid = fork();
    2276:	00004097          	auipc	ra,0x4
    227a:	bfa080e7          	jalr	-1030(ra) # 5e70 <fork>
    if(pid < 0){
    227e:	02054963          	bltz	a0,22b0 <kernmem+0x6a>
    if(pid == 0){
    2282:	c529                	beqz	a0,22cc <kernmem+0x86>
    wait(&xstatus);
    2284:	8556                	mv	a0,s5
    2286:	00004097          	auipc	ra,0x4
    228a:	bfa080e7          	jalr	-1030(ra) # 5e80 <wait>
    if(xstatus != -1)  // did kernel kill child?
    228e:	fbc42783          	lw	a5,-68(s0)
    2292:	05479e63          	bne	a5,s4,22ee <kernmem+0xa8>
  for(a = (char*)(KERNBASE); a < (char*) (KERNBASE+2000000); a += 50000){
    2296:	94ce                	add	s1,s1,s3
    2298:	fd249fe3          	bne	s1,s2,2276 <kernmem+0x30>
}
    229c:	60a6                	ld	ra,72(sp)
    229e:	6406                	ld	s0,64(sp)
    22a0:	74e2                	ld	s1,56(sp)
    22a2:	7942                	ld	s2,48(sp)
    22a4:	79a2                	ld	s3,40(sp)
    22a6:	7a02                	ld	s4,32(sp)
    22a8:	6ae2                	ld	s5,24(sp)
    22aa:	6b42                	ld	s6,16(sp)
    22ac:	6161                	addi	sp,sp,80
    22ae:	8082                	ret
      printf("%s: fork failed\n", s);
    22b0:	85da                	mv	a1,s6
    22b2:	00005517          	auipc	a0,0x5
    22b6:	9be50513          	addi	a0,a0,-1602 # 6c70 <malloc+0x9be>
    22ba:	00004097          	auipc	ra,0x4
    22be:	f3c080e7          	jalr	-196(ra) # 61f6 <printf>
      exit(1);
    22c2:	4505                	li	a0,1
    22c4:	00004097          	auipc	ra,0x4
    22c8:	bb4080e7          	jalr	-1100(ra) # 5e78 <exit>
      printf("%s: oops could read %x = %x\n", s, a, *a);
    22cc:	0004c683          	lbu	a3,0(s1)
    22d0:	8626                	mv	a2,s1
    22d2:	85da                	mv	a1,s6
    22d4:	00005517          	auipc	a0,0x5
    22d8:	c6c50513          	addi	a0,a0,-916 # 6f40 <malloc+0xc8e>
    22dc:	00004097          	auipc	ra,0x4
    22e0:	f1a080e7          	jalr	-230(ra) # 61f6 <printf>
      exit(1);
    22e4:	4505                	li	a0,1
    22e6:	00004097          	auipc	ra,0x4
    22ea:	b92080e7          	jalr	-1134(ra) # 5e78 <exit>
      exit(1);
    22ee:	4505                	li	a0,1
    22f0:	00004097          	auipc	ra,0x4
    22f4:	b88080e7          	jalr	-1144(ra) # 5e78 <exit>

00000000000022f8 <MAXVAplus>:
{
    22f8:	7139                	addi	sp,sp,-64
    22fa:	fc06                	sd	ra,56(sp)
    22fc:	f822                	sd	s0,48(sp)
    22fe:	0080                	addi	s0,sp,64
  volatile uint64 a = MAXVA;
    2300:	4785                	li	a5,1
    2302:	179a                	slli	a5,a5,0x26
    2304:	fcf43423          	sd	a5,-56(s0)
  for( ; a != 0; a <<= 1){
    2308:	fc843783          	ld	a5,-56(s0)
    230c:	c3b9                	beqz	a5,2352 <MAXVAplus+0x5a>
    230e:	f426                	sd	s1,40(sp)
    2310:	f04a                	sd	s2,32(sp)
    2312:	ec4e                	sd	s3,24(sp)
    2314:	89aa                	mv	s3,a0
    wait(&xstatus);
    2316:	fc440913          	addi	s2,s0,-60
    if(xstatus != -1)  // did kernel kill child?
    231a:	54fd                	li	s1,-1
    pid = fork();
    231c:	00004097          	auipc	ra,0x4
    2320:	b54080e7          	jalr	-1196(ra) # 5e70 <fork>
    if(pid < 0){
    2324:	02054b63          	bltz	a0,235a <MAXVAplus+0x62>
    if(pid == 0){
    2328:	c539                	beqz	a0,2376 <MAXVAplus+0x7e>
    wait(&xstatus);
    232a:	854a                	mv	a0,s2
    232c:	00004097          	auipc	ra,0x4
    2330:	b54080e7          	jalr	-1196(ra) # 5e80 <wait>
    if(xstatus != -1)  // did kernel kill child?
    2334:	fc442783          	lw	a5,-60(s0)
    2338:	06979563          	bne	a5,s1,23a2 <MAXVAplus+0xaa>
  for( ; a != 0; a <<= 1){
    233c:	fc843783          	ld	a5,-56(s0)
    2340:	0786                	slli	a5,a5,0x1
    2342:	fcf43423          	sd	a5,-56(s0)
    2346:	fc843783          	ld	a5,-56(s0)
    234a:	fbe9                	bnez	a5,231c <MAXVAplus+0x24>
    234c:	74a2                	ld	s1,40(sp)
    234e:	7902                	ld	s2,32(sp)
    2350:	69e2                	ld	s3,24(sp)
}
    2352:	70e2                	ld	ra,56(sp)
    2354:	7442                	ld	s0,48(sp)
    2356:	6121                	addi	sp,sp,64
    2358:	8082                	ret
      printf("%s: fork failed\n", s);
    235a:	85ce                	mv	a1,s3
    235c:	00005517          	auipc	a0,0x5
    2360:	91450513          	addi	a0,a0,-1772 # 6c70 <malloc+0x9be>
    2364:	00004097          	auipc	ra,0x4
    2368:	e92080e7          	jalr	-366(ra) # 61f6 <printf>
      exit(1);
    236c:	4505                	li	a0,1
    236e:	00004097          	auipc	ra,0x4
    2372:	b0a080e7          	jalr	-1270(ra) # 5e78 <exit>
      *(char*)a = 99;
    2376:	fc843783          	ld	a5,-56(s0)
    237a:	06300713          	li	a4,99
    237e:	00e78023          	sb	a4,0(a5)
      printf("%s: oops wrote %x\n", s, a);
    2382:	fc843603          	ld	a2,-56(s0)
    2386:	85ce                	mv	a1,s3
    2388:	00005517          	auipc	a0,0x5
    238c:	bd850513          	addi	a0,a0,-1064 # 6f60 <malloc+0xcae>
    2390:	00004097          	auipc	ra,0x4
    2394:	e66080e7          	jalr	-410(ra) # 61f6 <printf>
      exit(1);
    2398:	4505                	li	a0,1
    239a:	00004097          	auipc	ra,0x4
    239e:	ade080e7          	jalr	-1314(ra) # 5e78 <exit>
      exit(1);
    23a2:	4505                	li	a0,1
    23a4:	00004097          	auipc	ra,0x4
    23a8:	ad4080e7          	jalr	-1324(ra) # 5e78 <exit>

00000000000023ac <bigargtest>:
{
    23ac:	7179                	addi	sp,sp,-48
    23ae:	f406                	sd	ra,40(sp)
    23b0:	f022                	sd	s0,32(sp)
    23b2:	ec26                	sd	s1,24(sp)
    23b4:	1800                	addi	s0,sp,48
    23b6:	84aa                	mv	s1,a0
  unlink("bigarg-ok");
    23b8:	00005517          	auipc	a0,0x5
    23bc:	bc050513          	addi	a0,a0,-1088 # 6f78 <malloc+0xcc6>
    23c0:	00004097          	auipc	ra,0x4
    23c4:	b08080e7          	jalr	-1272(ra) # 5ec8 <unlink>
  pid = fork();
    23c8:	00004097          	auipc	ra,0x4
    23cc:	aa8080e7          	jalr	-1368(ra) # 5e70 <fork>
  if(pid == 0){
    23d0:	c121                	beqz	a0,2410 <bigargtest+0x64>
  } else if(pid < 0){
    23d2:	0a054063          	bltz	a0,2472 <bigargtest+0xc6>
  wait(&xstatus);
    23d6:	fdc40513          	addi	a0,s0,-36
    23da:	00004097          	auipc	ra,0x4
    23de:	aa6080e7          	jalr	-1370(ra) # 5e80 <wait>
  if(xstatus != 0)
    23e2:	fdc42503          	lw	a0,-36(s0)
    23e6:	e545                	bnez	a0,248e <bigargtest+0xe2>
  fd = open("bigarg-ok", 0);
    23e8:	4581                	li	a1,0
    23ea:	00005517          	auipc	a0,0x5
    23ee:	b8e50513          	addi	a0,a0,-1138 # 6f78 <malloc+0xcc6>
    23f2:	00004097          	auipc	ra,0x4
    23f6:	ac6080e7          	jalr	-1338(ra) # 5eb8 <open>
  if(fd < 0){
    23fa:	08054e63          	bltz	a0,2496 <bigargtest+0xea>
  close(fd);
    23fe:	00004097          	auipc	ra,0x4
    2402:	aa2080e7          	jalr	-1374(ra) # 5ea0 <close>
}
    2406:	70a2                	ld	ra,40(sp)
    2408:	7402                	ld	s0,32(sp)
    240a:	64e2                	ld	s1,24(sp)
    240c:	6145                	addi	sp,sp,48
    240e:	8082                	ret
    2410:	00007797          	auipc	a5,0x7
    2414:	05078793          	addi	a5,a5,80 # 9460 <args.1>
    2418:	00007697          	auipc	a3,0x7
    241c:	14068693          	addi	a3,a3,320 # 9558 <args.1+0xf8>
      args[i] = "bigargs test: failed\n                                                                                                                                                                                                       ";
    2420:	00005717          	auipc	a4,0x5
    2424:	b6870713          	addi	a4,a4,-1176 # 6f88 <malloc+0xcd6>
    2428:	e398                	sd	a4,0(a5)
    for(i = 0; i < MAXARG-1; i++)
    242a:	07a1                	addi	a5,a5,8
    242c:	fed79ee3          	bne	a5,a3,2428 <bigargtest+0x7c>
    args[MAXARG-1] = 0;
    2430:	00007597          	auipc	a1,0x7
    2434:	03058593          	addi	a1,a1,48 # 9460 <args.1>
    2438:	0e05bc23          	sd	zero,248(a1)
    exec("echo", args);
    243c:	00004517          	auipc	a0,0x4
    2440:	fac50513          	addi	a0,a0,-84 # 63e8 <malloc+0x136>
    2444:	00004097          	auipc	ra,0x4
    2448:	a6c080e7          	jalr	-1428(ra) # 5eb0 <exec>
    fd = open("bigarg-ok", O_CREATE);
    244c:	20000593          	li	a1,512
    2450:	00005517          	auipc	a0,0x5
    2454:	b2850513          	addi	a0,a0,-1240 # 6f78 <malloc+0xcc6>
    2458:	00004097          	auipc	ra,0x4
    245c:	a60080e7          	jalr	-1440(ra) # 5eb8 <open>
    close(fd);
    2460:	00004097          	auipc	ra,0x4
    2464:	a40080e7          	jalr	-1472(ra) # 5ea0 <close>
    exit(0);
    2468:	4501                	li	a0,0
    246a:	00004097          	auipc	ra,0x4
    246e:	a0e080e7          	jalr	-1522(ra) # 5e78 <exit>
    printf("%s: bigargtest: fork failed\n", s);
    2472:	85a6                	mv	a1,s1
    2474:	00005517          	auipc	a0,0x5
    2478:	bf450513          	addi	a0,a0,-1036 # 7068 <malloc+0xdb6>
    247c:	00004097          	auipc	ra,0x4
    2480:	d7a080e7          	jalr	-646(ra) # 61f6 <printf>
    exit(1);
    2484:	4505                	li	a0,1
    2486:	00004097          	auipc	ra,0x4
    248a:	9f2080e7          	jalr	-1550(ra) # 5e78 <exit>
    exit(xstatus);
    248e:	00004097          	auipc	ra,0x4
    2492:	9ea080e7          	jalr	-1558(ra) # 5e78 <exit>
    printf("%s: bigarg test failed!\n", s);
    2496:	85a6                	mv	a1,s1
    2498:	00005517          	auipc	a0,0x5
    249c:	bf050513          	addi	a0,a0,-1040 # 7088 <malloc+0xdd6>
    24a0:	00004097          	auipc	ra,0x4
    24a4:	d56080e7          	jalr	-682(ra) # 61f6 <printf>
    exit(1);
    24a8:	4505                	li	a0,1
    24aa:	00004097          	auipc	ra,0x4
    24ae:	9ce080e7          	jalr	-1586(ra) # 5e78 <exit>

00000000000024b2 <stacktest>:
{
    24b2:	7179                	addi	sp,sp,-48
    24b4:	f406                	sd	ra,40(sp)
    24b6:	f022                	sd	s0,32(sp)
    24b8:	ec26                	sd	s1,24(sp)
    24ba:	1800                	addi	s0,sp,48
    24bc:	84aa                	mv	s1,a0
  pid = fork();
    24be:	00004097          	auipc	ra,0x4
    24c2:	9b2080e7          	jalr	-1614(ra) # 5e70 <fork>
  if(pid == 0) {
    24c6:	c115                	beqz	a0,24ea <stacktest+0x38>
  } else if(pid < 0){
    24c8:	04054463          	bltz	a0,2510 <stacktest+0x5e>
  wait(&xstatus);
    24cc:	fdc40513          	addi	a0,s0,-36
    24d0:	00004097          	auipc	ra,0x4
    24d4:	9b0080e7          	jalr	-1616(ra) # 5e80 <wait>
  if(xstatus == -1)  // kernel killed child?
    24d8:	fdc42503          	lw	a0,-36(s0)
    24dc:	57fd                	li	a5,-1
    24de:	04f50763          	beq	a0,a5,252c <stacktest+0x7a>
    exit(xstatus);
    24e2:	00004097          	auipc	ra,0x4
    24e6:	996080e7          	jalr	-1642(ra) # 5e78 <exit>

static inline uint64
r_sp()
{
    uint64 x;
    asm volatile("mv %0, sp" : "=r"(x));
    24ea:	870a                	mv	a4,sp
    printf("%s: stacktest: read below stack %p\n", s, *sp);
    24ec:	77fd                	lui	a5,0xfffff
    24ee:	97ba                	add	a5,a5,a4
    24f0:	0007c603          	lbu	a2,0(a5) # fffffffffffff000 <base+0xfffffffffffef388>
    24f4:	85a6                	mv	a1,s1
    24f6:	00005517          	auipc	a0,0x5
    24fa:	bb250513          	addi	a0,a0,-1102 # 70a8 <malloc+0xdf6>
    24fe:	00004097          	auipc	ra,0x4
    2502:	cf8080e7          	jalr	-776(ra) # 61f6 <printf>
    exit(1);
    2506:	4505                	li	a0,1
    2508:	00004097          	auipc	ra,0x4
    250c:	970080e7          	jalr	-1680(ra) # 5e78 <exit>
    printf("%s: fork failed\n", s);
    2510:	85a6                	mv	a1,s1
    2512:	00004517          	auipc	a0,0x4
    2516:	75e50513          	addi	a0,a0,1886 # 6c70 <malloc+0x9be>
    251a:	00004097          	auipc	ra,0x4
    251e:	cdc080e7          	jalr	-804(ra) # 61f6 <printf>
    exit(1);
    2522:	4505                	li	a0,1
    2524:	00004097          	auipc	ra,0x4
    2528:	954080e7          	jalr	-1708(ra) # 5e78 <exit>
    exit(0);
    252c:	4501                	li	a0,0
    252e:	00004097          	auipc	ra,0x4
    2532:	94a080e7          	jalr	-1718(ra) # 5e78 <exit>

0000000000002536 <textwrite>:
{
    2536:	7179                	addi	sp,sp,-48
    2538:	f406                	sd	ra,40(sp)
    253a:	f022                	sd	s0,32(sp)
    253c:	ec26                	sd	s1,24(sp)
    253e:	1800                	addi	s0,sp,48
    2540:	84aa                	mv	s1,a0
  pid = fork();
    2542:	00004097          	auipc	ra,0x4
    2546:	92e080e7          	jalr	-1746(ra) # 5e70 <fork>
  if(pid == 0) {
    254a:	c115                	beqz	a0,256e <textwrite+0x38>
  } else if(pid < 0){
    254c:	02054963          	bltz	a0,257e <textwrite+0x48>
  wait(&xstatus);
    2550:	fdc40513          	addi	a0,s0,-36
    2554:	00004097          	auipc	ra,0x4
    2558:	92c080e7          	jalr	-1748(ra) # 5e80 <wait>
  if(xstatus == -1)  // kernel killed child?
    255c:	fdc42503          	lw	a0,-36(s0)
    2560:	57fd                	li	a5,-1
    2562:	02f50c63          	beq	a0,a5,259a <textwrite+0x64>
    exit(xstatus);
    2566:	00004097          	auipc	ra,0x4
    256a:	912080e7          	jalr	-1774(ra) # 5e78 <exit>
    *addr = 10;
    256e:	47a9                	li	a5,10
    2570:	00f02023          	sw	a5,0(zero) # 0 <copyinstr1>
    exit(1);
    2574:	4505                	li	a0,1
    2576:	00004097          	auipc	ra,0x4
    257a:	902080e7          	jalr	-1790(ra) # 5e78 <exit>
    printf("%s: fork failed\n", s);
    257e:	85a6                	mv	a1,s1
    2580:	00004517          	auipc	a0,0x4
    2584:	6f050513          	addi	a0,a0,1776 # 6c70 <malloc+0x9be>
    2588:	00004097          	auipc	ra,0x4
    258c:	c6e080e7          	jalr	-914(ra) # 61f6 <printf>
    exit(1);
    2590:	4505                	li	a0,1
    2592:	00004097          	auipc	ra,0x4
    2596:	8e6080e7          	jalr	-1818(ra) # 5e78 <exit>
    exit(0);
    259a:	4501                	li	a0,0
    259c:	00004097          	auipc	ra,0x4
    25a0:	8dc080e7          	jalr	-1828(ra) # 5e78 <exit>

00000000000025a4 <manywrites>:
{
    25a4:	7159                	addi	sp,sp,-112
    25a6:	f486                	sd	ra,104(sp)
    25a8:	f0a2                	sd	s0,96(sp)
    25aa:	eca6                	sd	s1,88(sp)
    25ac:	e8ca                	sd	s2,80(sp)
    25ae:	e4ce                	sd	s3,72(sp)
    25b0:	fc56                	sd	s5,56(sp)
    25b2:	1880                	addi	s0,sp,112
    25b4:	8aaa                	mv	s5,a0
  for(int ci = 0; ci < nchildren; ci++){
    25b6:	4901                	li	s2,0
    25b8:	4991                	li	s3,4
    int pid = fork();
    25ba:	00004097          	auipc	ra,0x4
    25be:	8b6080e7          	jalr	-1866(ra) # 5e70 <fork>
    25c2:	84aa                	mv	s1,a0
    if(pid < 0){
    25c4:	04054163          	bltz	a0,2606 <manywrites+0x62>
    if(pid == 0){
    25c8:	c135                	beqz	a0,262c <manywrites+0x88>
  for(int ci = 0; ci < nchildren; ci++){
    25ca:	2905                	addiw	s2,s2,1
    25cc:	ff3917e3          	bne	s2,s3,25ba <manywrites+0x16>
    25d0:	4491                	li	s1,4
    wait(&st);
    25d2:	f9840913          	addi	s2,s0,-104
    int st = 0;
    25d6:	f8042c23          	sw	zero,-104(s0)
    wait(&st);
    25da:	854a                	mv	a0,s2
    25dc:	00004097          	auipc	ra,0x4
    25e0:	8a4080e7          	jalr	-1884(ra) # 5e80 <wait>
    if(st != 0)
    25e4:	f9842503          	lw	a0,-104(s0)
    25e8:	12051063          	bnez	a0,2708 <manywrites+0x164>
  for(int ci = 0; ci < nchildren; ci++){
    25ec:	34fd                	addiw	s1,s1,-1
    25ee:	f4e5                	bnez	s1,25d6 <manywrites+0x32>
    25f0:	e0d2                	sd	s4,64(sp)
    25f2:	f85a                	sd	s6,48(sp)
    25f4:	f45e                	sd	s7,40(sp)
    25f6:	f062                	sd	s8,32(sp)
    25f8:	ec66                	sd	s9,24(sp)
    25fa:	e86a                	sd	s10,16(sp)
  exit(0);
    25fc:	4501                	li	a0,0
    25fe:	00004097          	auipc	ra,0x4
    2602:	87a080e7          	jalr	-1926(ra) # 5e78 <exit>
    2606:	e0d2                	sd	s4,64(sp)
    2608:	f85a                	sd	s6,48(sp)
    260a:	f45e                	sd	s7,40(sp)
    260c:	f062                	sd	s8,32(sp)
    260e:	ec66                	sd	s9,24(sp)
    2610:	e86a                	sd	s10,16(sp)
      printf("fork failed\n");
    2612:	00005517          	auipc	a0,0x5
    2616:	a6650513          	addi	a0,a0,-1434 # 7078 <malloc+0xdc6>
    261a:	00004097          	auipc	ra,0x4
    261e:	bdc080e7          	jalr	-1060(ra) # 61f6 <printf>
      exit(1);
    2622:	4505                	li	a0,1
    2624:	00004097          	auipc	ra,0x4
    2628:	854080e7          	jalr	-1964(ra) # 5e78 <exit>
    262c:	e0d2                	sd	s4,64(sp)
    262e:	f85a                	sd	s6,48(sp)
    2630:	f45e                	sd	s7,40(sp)
    2632:	f062                	sd	s8,32(sp)
    2634:	ec66                	sd	s9,24(sp)
    2636:	e86a                	sd	s10,16(sp)
      name[0] = 'b';
    2638:	06200793          	li	a5,98
    263c:	f8f40c23          	sb	a5,-104(s0)
      name[1] = 'a' + ci;
    2640:	0619079b          	addiw	a5,s2,97
    2644:	f8f40ca3          	sb	a5,-103(s0)
      name[2] = '\0';
    2648:	f8040d23          	sb	zero,-102(s0)
      unlink(name);
    264c:	f9840513          	addi	a0,s0,-104
    2650:	00004097          	auipc	ra,0x4
    2654:	878080e7          	jalr	-1928(ra) # 5ec8 <unlink>
    2658:	4d79                	li	s10,30
          int fd = open(name, O_CREATE | O_RDWR);
    265a:	f9840c13          	addi	s8,s0,-104
    265e:	20200b93          	li	s7,514
          int cc = write(fd, buf, sz);
    2662:	6b0d                	lui	s6,0x3
    2664:	0000ac97          	auipc	s9,0xa
    2668:	614c8c93          	addi	s9,s9,1556 # cc78 <buf>
        for(int i = 0; i < ci+1; i++){
    266c:	8a26                	mv	s4,s1
          int fd = open(name, O_CREATE | O_RDWR);
    266e:	85de                	mv	a1,s7
    2670:	8562                	mv	a0,s8
    2672:	00004097          	auipc	ra,0x4
    2676:	846080e7          	jalr	-1978(ra) # 5eb8 <open>
    267a:	89aa                	mv	s3,a0
          if(fd < 0){
    267c:	04054663          	bltz	a0,26c8 <manywrites+0x124>
          int cc = write(fd, buf, sz);
    2680:	865a                	mv	a2,s6
    2682:	85e6                	mv	a1,s9
    2684:	00004097          	auipc	ra,0x4
    2688:	814080e7          	jalr	-2028(ra) # 5e98 <write>
          if(cc != sz){
    268c:	05651e63          	bne	a0,s6,26e8 <manywrites+0x144>
          close(fd);
    2690:	854e                	mv	a0,s3
    2692:	00004097          	auipc	ra,0x4
    2696:	80e080e7          	jalr	-2034(ra) # 5ea0 <close>
        for(int i = 0; i < ci+1; i++){
    269a:	2a05                	addiw	s4,s4,1
    269c:	fd4959e3          	bge	s2,s4,266e <manywrites+0xca>
        unlink(name);
    26a0:	f9840513          	addi	a0,s0,-104
    26a4:	00004097          	auipc	ra,0x4
    26a8:	824080e7          	jalr	-2012(ra) # 5ec8 <unlink>
      for(int iters = 0; iters < howmany; iters++){
    26ac:	3d7d                	addiw	s10,s10,-1
    26ae:	fa0d1fe3          	bnez	s10,266c <manywrites+0xc8>
      unlink(name);
    26b2:	f9840513          	addi	a0,s0,-104
    26b6:	00004097          	auipc	ra,0x4
    26ba:	812080e7          	jalr	-2030(ra) # 5ec8 <unlink>
      exit(0);
    26be:	4501                	li	a0,0
    26c0:	00003097          	auipc	ra,0x3
    26c4:	7b8080e7          	jalr	1976(ra) # 5e78 <exit>
            printf("%s: cannot create %s\n", s, name);
    26c8:	f9840613          	addi	a2,s0,-104
    26cc:	85d6                	mv	a1,s5
    26ce:	00005517          	auipc	a0,0x5
    26d2:	a0250513          	addi	a0,a0,-1534 # 70d0 <malloc+0xe1e>
    26d6:	00004097          	auipc	ra,0x4
    26da:	b20080e7          	jalr	-1248(ra) # 61f6 <printf>
            exit(1);
    26de:	4505                	li	a0,1
    26e0:	00003097          	auipc	ra,0x3
    26e4:	798080e7          	jalr	1944(ra) # 5e78 <exit>
            printf("%s: write(%d) ret %d\n", s, sz, cc);
    26e8:	86aa                	mv	a3,a0
    26ea:	660d                	lui	a2,0x3
    26ec:	85d6                	mv	a1,s5
    26ee:	00004517          	auipc	a0,0x4
    26f2:	dca50513          	addi	a0,a0,-566 # 64b8 <malloc+0x206>
    26f6:	00004097          	auipc	ra,0x4
    26fa:	b00080e7          	jalr	-1280(ra) # 61f6 <printf>
            exit(1);
    26fe:	4505                	li	a0,1
    2700:	00003097          	auipc	ra,0x3
    2704:	778080e7          	jalr	1912(ra) # 5e78 <exit>
    2708:	e0d2                	sd	s4,64(sp)
    270a:	f85a                	sd	s6,48(sp)
    270c:	f45e                	sd	s7,40(sp)
    270e:	f062                	sd	s8,32(sp)
    2710:	ec66                	sd	s9,24(sp)
    2712:	e86a                	sd	s10,16(sp)
      exit(st);
    2714:	00003097          	auipc	ra,0x3
    2718:	764080e7          	jalr	1892(ra) # 5e78 <exit>

000000000000271c <copyinstr3>:
{
    271c:	7179                	addi	sp,sp,-48
    271e:	f406                	sd	ra,40(sp)
    2720:	f022                	sd	s0,32(sp)
    2722:	ec26                	sd	s1,24(sp)
    2724:	1800                	addi	s0,sp,48
  sbrk(8192);
    2726:	6509                	lui	a0,0x2
    2728:	00003097          	auipc	ra,0x3
    272c:	7d8080e7          	jalr	2008(ra) # 5f00 <sbrk>
  uint64 top = (uint64) sbrk(0);
    2730:	4501                	li	a0,0
    2732:	00003097          	auipc	ra,0x3
    2736:	7ce080e7          	jalr	1998(ra) # 5f00 <sbrk>
  if((top % PGSIZE) != 0){
    273a:	03451793          	slli	a5,a0,0x34
    273e:	e3c9                	bnez	a5,27c0 <copyinstr3+0xa4>
  top = (uint64) sbrk(0);
    2740:	4501                	li	a0,0
    2742:	00003097          	auipc	ra,0x3
    2746:	7be080e7          	jalr	1982(ra) # 5f00 <sbrk>
  if(top % PGSIZE){
    274a:	03451793          	slli	a5,a0,0x34
    274e:	e7c1                	bnez	a5,27d6 <copyinstr3+0xba>
  char *b = (char *) (top - 1);
    2750:	fff50493          	addi	s1,a0,-1 # 1fff <createdelete+0x1dd>
  *b = 'x';
    2754:	07800793          	li	a5,120
    2758:	fef50fa3          	sb	a5,-1(a0)
  int ret = unlink(b);
    275c:	8526                	mv	a0,s1
    275e:	00003097          	auipc	ra,0x3
    2762:	76a080e7          	jalr	1898(ra) # 5ec8 <unlink>
  if(ret != -1){
    2766:	57fd                	li	a5,-1
    2768:	08f51463          	bne	a0,a5,27f0 <copyinstr3+0xd4>
  int fd = open(b, O_CREATE | O_WRONLY);
    276c:	20100593          	li	a1,513
    2770:	8526                	mv	a0,s1
    2772:	00003097          	auipc	ra,0x3
    2776:	746080e7          	jalr	1862(ra) # 5eb8 <open>
  if(fd != -1){
    277a:	57fd                	li	a5,-1
    277c:	08f51963          	bne	a0,a5,280e <copyinstr3+0xf2>
  ret = link(b, b);
    2780:	85a6                	mv	a1,s1
    2782:	8526                	mv	a0,s1
    2784:	00003097          	auipc	ra,0x3
    2788:	754080e7          	jalr	1876(ra) # 5ed8 <link>
  if(ret != -1){
    278c:	57fd                	li	a5,-1
    278e:	08f51f63          	bne	a0,a5,282c <copyinstr3+0x110>
  char *args[] = { "xx", 0 };
    2792:	00005797          	auipc	a5,0x5
    2796:	63678793          	addi	a5,a5,1590 # 7dc8 <malloc+0x1b16>
    279a:	fcf43823          	sd	a5,-48(s0)
    279e:	fc043c23          	sd	zero,-40(s0)
  ret = exec(b, args);
    27a2:	fd040593          	addi	a1,s0,-48
    27a6:	8526                	mv	a0,s1
    27a8:	00003097          	auipc	ra,0x3
    27ac:	708080e7          	jalr	1800(ra) # 5eb0 <exec>
  if(ret != -1){
    27b0:	57fd                	li	a5,-1
    27b2:	08f51d63          	bne	a0,a5,284c <copyinstr3+0x130>
}
    27b6:	70a2                	ld	ra,40(sp)
    27b8:	7402                	ld	s0,32(sp)
    27ba:	64e2                	ld	s1,24(sp)
    27bc:	6145                	addi	sp,sp,48
    27be:	8082                	ret
    sbrk(PGSIZE - (top % PGSIZE));
    27c0:	6785                	lui	a5,0x1
    27c2:	fff78713          	addi	a4,a5,-1 # fff <linktest+0xbb>
    27c6:	8d79                	and	a0,a0,a4
    27c8:	40a7853b          	subw	a0,a5,a0
    27cc:	00003097          	auipc	ra,0x3
    27d0:	734080e7          	jalr	1844(ra) # 5f00 <sbrk>
    27d4:	b7b5                	j	2740 <copyinstr3+0x24>
    printf("oops\n");
    27d6:	00005517          	auipc	a0,0x5
    27da:	91250513          	addi	a0,a0,-1774 # 70e8 <malloc+0xe36>
    27de:	00004097          	auipc	ra,0x4
    27e2:	a18080e7          	jalr	-1512(ra) # 61f6 <printf>
    exit(1);
    27e6:	4505                	li	a0,1
    27e8:	00003097          	auipc	ra,0x3
    27ec:	690080e7          	jalr	1680(ra) # 5e78 <exit>
    printf("unlink(%s) returned %d, not -1\n", b, ret);
    27f0:	862a                	mv	a2,a0
    27f2:	85a6                	mv	a1,s1
    27f4:	00004517          	auipc	a0,0x4
    27f8:	39c50513          	addi	a0,a0,924 # 6b90 <malloc+0x8de>
    27fc:	00004097          	auipc	ra,0x4
    2800:	9fa080e7          	jalr	-1542(ra) # 61f6 <printf>
    exit(1);
    2804:	4505                	li	a0,1
    2806:	00003097          	auipc	ra,0x3
    280a:	672080e7          	jalr	1650(ra) # 5e78 <exit>
    printf("open(%s) returned %d, not -1\n", b, fd);
    280e:	862a                	mv	a2,a0
    2810:	85a6                	mv	a1,s1
    2812:	00004517          	auipc	a0,0x4
    2816:	39e50513          	addi	a0,a0,926 # 6bb0 <malloc+0x8fe>
    281a:	00004097          	auipc	ra,0x4
    281e:	9dc080e7          	jalr	-1572(ra) # 61f6 <printf>
    exit(1);
    2822:	4505                	li	a0,1
    2824:	00003097          	auipc	ra,0x3
    2828:	654080e7          	jalr	1620(ra) # 5e78 <exit>
    printf("link(%s, %s) returned %d, not -1\n", b, b, ret);
    282c:	86aa                	mv	a3,a0
    282e:	8626                	mv	a2,s1
    2830:	85a6                	mv	a1,s1
    2832:	00004517          	auipc	a0,0x4
    2836:	39e50513          	addi	a0,a0,926 # 6bd0 <malloc+0x91e>
    283a:	00004097          	auipc	ra,0x4
    283e:	9bc080e7          	jalr	-1604(ra) # 61f6 <printf>
    exit(1);
    2842:	4505                	li	a0,1
    2844:	00003097          	auipc	ra,0x3
    2848:	634080e7          	jalr	1588(ra) # 5e78 <exit>
    printf("exec(%s) returned %d, not -1\n", b, fd);
    284c:	863e                	mv	a2,a5
    284e:	85a6                	mv	a1,s1
    2850:	00004517          	auipc	a0,0x4
    2854:	3a850513          	addi	a0,a0,936 # 6bf8 <malloc+0x946>
    2858:	00004097          	auipc	ra,0x4
    285c:	99e080e7          	jalr	-1634(ra) # 61f6 <printf>
    exit(1);
    2860:	4505                	li	a0,1
    2862:	00003097          	auipc	ra,0x3
    2866:	616080e7          	jalr	1558(ra) # 5e78 <exit>

000000000000286a <rwsbrk>:
{
    286a:	1101                	addi	sp,sp,-32
    286c:	ec06                	sd	ra,24(sp)
    286e:	e822                	sd	s0,16(sp)
    2870:	1000                	addi	s0,sp,32
  uint64 a = (uint64) sbrk(8192);
    2872:	6509                	lui	a0,0x2
    2874:	00003097          	auipc	ra,0x3
    2878:	68c080e7          	jalr	1676(ra) # 5f00 <sbrk>
  if(a == 0xffffffffffffffffLL) {
    287c:	57fd                	li	a5,-1
    287e:	06f50463          	beq	a0,a5,28e6 <rwsbrk+0x7c>
    2882:	e426                	sd	s1,8(sp)
    2884:	84aa                	mv	s1,a0
  if ((uint64) sbrk(-8192) ==  0xffffffffffffffffLL) {
    2886:	7579                	lui	a0,0xffffe
    2888:	00003097          	auipc	ra,0x3
    288c:	678080e7          	jalr	1656(ra) # 5f00 <sbrk>
    2890:	57fd                	li	a5,-1
    2892:	06f50963          	beq	a0,a5,2904 <rwsbrk+0x9a>
    2896:	e04a                	sd	s2,0(sp)
  fd = open("rwsbrk", O_CREATE|O_WRONLY);
    2898:	20100593          	li	a1,513
    289c:	00005517          	auipc	a0,0x5
    28a0:	88c50513          	addi	a0,a0,-1908 # 7128 <malloc+0xe76>
    28a4:	00003097          	auipc	ra,0x3
    28a8:	614080e7          	jalr	1556(ra) # 5eb8 <open>
    28ac:	892a                	mv	s2,a0
  if(fd < 0){
    28ae:	06054963          	bltz	a0,2920 <rwsbrk+0xb6>
  n = write(fd, (void*)(a+4096), 1024);
    28b2:	6785                	lui	a5,0x1
    28b4:	94be                	add	s1,s1,a5
    28b6:	40000613          	li	a2,1024
    28ba:	85a6                	mv	a1,s1
    28bc:	00003097          	auipc	ra,0x3
    28c0:	5dc080e7          	jalr	1500(ra) # 5e98 <write>
    28c4:	862a                	mv	a2,a0
  if(n >= 0){
    28c6:	06054a63          	bltz	a0,293a <rwsbrk+0xd0>
    printf("write(fd, %p, 1024) returned %d, not -1\n", a+4096, n);
    28ca:	85a6                	mv	a1,s1
    28cc:	00005517          	auipc	a0,0x5
    28d0:	87c50513          	addi	a0,a0,-1924 # 7148 <malloc+0xe96>
    28d4:	00004097          	auipc	ra,0x4
    28d8:	922080e7          	jalr	-1758(ra) # 61f6 <printf>
    exit(1);
    28dc:	4505                	li	a0,1
    28de:	00003097          	auipc	ra,0x3
    28e2:	59a080e7          	jalr	1434(ra) # 5e78 <exit>
    28e6:	e426                	sd	s1,8(sp)
    28e8:	e04a                	sd	s2,0(sp)
    printf("sbrk(rwsbrk) failed\n");
    28ea:	00005517          	auipc	a0,0x5
    28ee:	80650513          	addi	a0,a0,-2042 # 70f0 <malloc+0xe3e>
    28f2:	00004097          	auipc	ra,0x4
    28f6:	904080e7          	jalr	-1788(ra) # 61f6 <printf>
    exit(1);
    28fa:	4505                	li	a0,1
    28fc:	00003097          	auipc	ra,0x3
    2900:	57c080e7          	jalr	1404(ra) # 5e78 <exit>
    2904:	e04a                	sd	s2,0(sp)
    printf("sbrk(rwsbrk) shrink failed\n");
    2906:	00005517          	auipc	a0,0x5
    290a:	80250513          	addi	a0,a0,-2046 # 7108 <malloc+0xe56>
    290e:	00004097          	auipc	ra,0x4
    2912:	8e8080e7          	jalr	-1816(ra) # 61f6 <printf>
    exit(1);
    2916:	4505                	li	a0,1
    2918:	00003097          	auipc	ra,0x3
    291c:	560080e7          	jalr	1376(ra) # 5e78 <exit>
    printf("open(rwsbrk) failed\n");
    2920:	00005517          	auipc	a0,0x5
    2924:	81050513          	addi	a0,a0,-2032 # 7130 <malloc+0xe7e>
    2928:	00004097          	auipc	ra,0x4
    292c:	8ce080e7          	jalr	-1842(ra) # 61f6 <printf>
    exit(1);
    2930:	4505                	li	a0,1
    2932:	00003097          	auipc	ra,0x3
    2936:	546080e7          	jalr	1350(ra) # 5e78 <exit>
  close(fd);
    293a:	854a                	mv	a0,s2
    293c:	00003097          	auipc	ra,0x3
    2940:	564080e7          	jalr	1380(ra) # 5ea0 <close>
  unlink("rwsbrk");
    2944:	00004517          	auipc	a0,0x4
    2948:	7e450513          	addi	a0,a0,2020 # 7128 <malloc+0xe76>
    294c:	00003097          	auipc	ra,0x3
    2950:	57c080e7          	jalr	1404(ra) # 5ec8 <unlink>
  fd = open("README", O_RDONLY);
    2954:	4581                	li	a1,0
    2956:	00004517          	auipc	a0,0x4
    295a:	c6a50513          	addi	a0,a0,-918 # 65c0 <malloc+0x30e>
    295e:	00003097          	auipc	ra,0x3
    2962:	55a080e7          	jalr	1370(ra) # 5eb8 <open>
    2966:	892a                	mv	s2,a0
  if(fd < 0){
    2968:	02054963          	bltz	a0,299a <rwsbrk+0x130>
  n = read(fd, (void*)(a+4096), 10);
    296c:	4629                	li	a2,10
    296e:	85a6                	mv	a1,s1
    2970:	00003097          	auipc	ra,0x3
    2974:	520080e7          	jalr	1312(ra) # 5e90 <read>
    2978:	862a                	mv	a2,a0
  if(n >= 0){
    297a:	02054d63          	bltz	a0,29b4 <rwsbrk+0x14a>
    printf("read(fd, %p, 10) returned %d, not -1\n", a+4096, n);
    297e:	85a6                	mv	a1,s1
    2980:	00004517          	auipc	a0,0x4
    2984:	7f850513          	addi	a0,a0,2040 # 7178 <malloc+0xec6>
    2988:	00004097          	auipc	ra,0x4
    298c:	86e080e7          	jalr	-1938(ra) # 61f6 <printf>
    exit(1);
    2990:	4505                	li	a0,1
    2992:	00003097          	auipc	ra,0x3
    2996:	4e6080e7          	jalr	1254(ra) # 5e78 <exit>
    printf("open(rwsbrk) failed\n");
    299a:	00004517          	auipc	a0,0x4
    299e:	79650513          	addi	a0,a0,1942 # 7130 <malloc+0xe7e>
    29a2:	00004097          	auipc	ra,0x4
    29a6:	854080e7          	jalr	-1964(ra) # 61f6 <printf>
    exit(1);
    29aa:	4505                	li	a0,1
    29ac:	00003097          	auipc	ra,0x3
    29b0:	4cc080e7          	jalr	1228(ra) # 5e78 <exit>
  close(fd);
    29b4:	854a                	mv	a0,s2
    29b6:	00003097          	auipc	ra,0x3
    29ba:	4ea080e7          	jalr	1258(ra) # 5ea0 <close>
  exit(0);
    29be:	4501                	li	a0,0
    29c0:	00003097          	auipc	ra,0x3
    29c4:	4b8080e7          	jalr	1208(ra) # 5e78 <exit>

00000000000029c8 <sbrkbasic>:
{
    29c8:	715d                	addi	sp,sp,-80
    29ca:	e486                	sd	ra,72(sp)
    29cc:	e0a2                	sd	s0,64(sp)
    29ce:	ec56                	sd	s5,24(sp)
    29d0:	0880                	addi	s0,sp,80
    29d2:	8aaa                	mv	s5,a0
  pid = fork();
    29d4:	00003097          	auipc	ra,0x3
    29d8:	49c080e7          	jalr	1180(ra) # 5e70 <fork>
  if(pid < 0){
    29dc:	04054063          	bltz	a0,2a1c <sbrkbasic+0x54>
  if(pid == 0){
    29e0:	e925                	bnez	a0,2a50 <sbrkbasic+0x88>
    a = sbrk(TOOMUCH);
    29e2:	40000537          	lui	a0,0x40000
    29e6:	00003097          	auipc	ra,0x3
    29ea:	51a080e7          	jalr	1306(ra) # 5f00 <sbrk>
    if(a == (char*)0xffffffffffffffffL){
    29ee:	57fd                	li	a5,-1
    29f0:	04f50763          	beq	a0,a5,2a3e <sbrkbasic+0x76>
    29f4:	fc26                	sd	s1,56(sp)
    29f6:	f84a                	sd	s2,48(sp)
    29f8:	f44e                	sd	s3,40(sp)
    29fa:	f052                	sd	s4,32(sp)
    for(b = a; b < a+TOOMUCH; b += 4096){
    29fc:	400007b7          	lui	a5,0x40000
    2a00:	97aa                	add	a5,a5,a0
      *b = 99;
    2a02:	06300693          	li	a3,99
    for(b = a; b < a+TOOMUCH; b += 4096){
    2a06:	6705                	lui	a4,0x1
      *b = 99;
    2a08:	00d50023          	sb	a3,0(a0) # 40000000 <base+0x3fff0388>
    for(b = a; b < a+TOOMUCH; b += 4096){
    2a0c:	953a                	add	a0,a0,a4
    2a0e:	fef51de3          	bne	a0,a5,2a08 <sbrkbasic+0x40>
    exit(1);
    2a12:	4505                	li	a0,1
    2a14:	00003097          	auipc	ra,0x3
    2a18:	464080e7          	jalr	1124(ra) # 5e78 <exit>
    2a1c:	fc26                	sd	s1,56(sp)
    2a1e:	f84a                	sd	s2,48(sp)
    2a20:	f44e                	sd	s3,40(sp)
    2a22:	f052                	sd	s4,32(sp)
    printf("fork failed in sbrkbasic\n");
    2a24:	00004517          	auipc	a0,0x4
    2a28:	77c50513          	addi	a0,a0,1916 # 71a0 <malloc+0xeee>
    2a2c:	00003097          	auipc	ra,0x3
    2a30:	7ca080e7          	jalr	1994(ra) # 61f6 <printf>
    exit(1);
    2a34:	4505                	li	a0,1
    2a36:	00003097          	auipc	ra,0x3
    2a3a:	442080e7          	jalr	1090(ra) # 5e78 <exit>
    2a3e:	fc26                	sd	s1,56(sp)
    2a40:	f84a                	sd	s2,48(sp)
    2a42:	f44e                	sd	s3,40(sp)
    2a44:	f052                	sd	s4,32(sp)
      exit(0);
    2a46:	4501                	li	a0,0
    2a48:	00003097          	auipc	ra,0x3
    2a4c:	430080e7          	jalr	1072(ra) # 5e78 <exit>
  wait(&xstatus);
    2a50:	fbc40513          	addi	a0,s0,-68
    2a54:	00003097          	auipc	ra,0x3
    2a58:	42c080e7          	jalr	1068(ra) # 5e80 <wait>
  if(xstatus == 1){
    2a5c:	fbc42703          	lw	a4,-68(s0)
    2a60:	4785                	li	a5,1
    2a62:	02f70263          	beq	a4,a5,2a86 <sbrkbasic+0xbe>
    2a66:	fc26                	sd	s1,56(sp)
    2a68:	f84a                	sd	s2,48(sp)
    2a6a:	f44e                	sd	s3,40(sp)
    2a6c:	f052                	sd	s4,32(sp)
  a = sbrk(0);
    2a6e:	4501                	li	a0,0
    2a70:	00003097          	auipc	ra,0x3
    2a74:	490080e7          	jalr	1168(ra) # 5f00 <sbrk>
    2a78:	84aa                	mv	s1,a0
  for(i = 0; i < 5000; i++){
    2a7a:	4901                	li	s2,0
    b = sbrk(1);
    2a7c:	4985                	li	s3,1
  for(i = 0; i < 5000; i++){
    2a7e:	6a05                	lui	s4,0x1
    2a80:	388a0a13          	addi	s4,s4,904 # 1388 <pgbug+0x1e>
    2a84:	a025                	j	2aac <sbrkbasic+0xe4>
    2a86:	fc26                	sd	s1,56(sp)
    2a88:	f84a                	sd	s2,48(sp)
    2a8a:	f44e                	sd	s3,40(sp)
    2a8c:	f052                	sd	s4,32(sp)
    printf("%s: too much memory allocated!\n", s);
    2a8e:	85d6                	mv	a1,s5
    2a90:	00004517          	auipc	a0,0x4
    2a94:	73050513          	addi	a0,a0,1840 # 71c0 <malloc+0xf0e>
    2a98:	00003097          	auipc	ra,0x3
    2a9c:	75e080e7          	jalr	1886(ra) # 61f6 <printf>
    exit(1);
    2aa0:	4505                	li	a0,1
    2aa2:	00003097          	auipc	ra,0x3
    2aa6:	3d6080e7          	jalr	982(ra) # 5e78 <exit>
    2aaa:	84be                	mv	s1,a5
    b = sbrk(1);
    2aac:	854e                	mv	a0,s3
    2aae:	00003097          	auipc	ra,0x3
    2ab2:	452080e7          	jalr	1106(ra) # 5f00 <sbrk>
    if(b != a){
    2ab6:	04951b63          	bne	a0,s1,2b0c <sbrkbasic+0x144>
    *b = 1;
    2aba:	01348023          	sb	s3,0(s1)
    a = b + 1;
    2abe:	00148793          	addi	a5,s1,1
  for(i = 0; i < 5000; i++){
    2ac2:	2905                	addiw	s2,s2,1
    2ac4:	ff4913e3          	bne	s2,s4,2aaa <sbrkbasic+0xe2>
  pid = fork();
    2ac8:	00003097          	auipc	ra,0x3
    2acc:	3a8080e7          	jalr	936(ra) # 5e70 <fork>
    2ad0:	892a                	mv	s2,a0
  if(pid < 0){
    2ad2:	04054e63          	bltz	a0,2b2e <sbrkbasic+0x166>
  c = sbrk(1);
    2ad6:	4505                	li	a0,1
    2ad8:	00003097          	auipc	ra,0x3
    2adc:	428080e7          	jalr	1064(ra) # 5f00 <sbrk>
  c = sbrk(1);
    2ae0:	4505                	li	a0,1
    2ae2:	00003097          	auipc	ra,0x3
    2ae6:	41e080e7          	jalr	1054(ra) # 5f00 <sbrk>
  if(c != a + 1){
    2aea:	0489                	addi	s1,s1,2
    2aec:	04a48f63          	beq	s1,a0,2b4a <sbrkbasic+0x182>
    printf("%s: sbrk test failed post-fork\n", s);
    2af0:	85d6                	mv	a1,s5
    2af2:	00004517          	auipc	a0,0x4
    2af6:	72e50513          	addi	a0,a0,1838 # 7220 <malloc+0xf6e>
    2afa:	00003097          	auipc	ra,0x3
    2afe:	6fc080e7          	jalr	1788(ra) # 61f6 <printf>
    exit(1);
    2b02:	4505                	li	a0,1
    2b04:	00003097          	auipc	ra,0x3
    2b08:	374080e7          	jalr	884(ra) # 5e78 <exit>
      printf("%s: sbrk test failed %d %x %x\n", s, i, a, b);
    2b0c:	872a                	mv	a4,a0
    2b0e:	86a6                	mv	a3,s1
    2b10:	864a                	mv	a2,s2
    2b12:	85d6                	mv	a1,s5
    2b14:	00004517          	auipc	a0,0x4
    2b18:	6cc50513          	addi	a0,a0,1740 # 71e0 <malloc+0xf2e>
    2b1c:	00003097          	auipc	ra,0x3
    2b20:	6da080e7          	jalr	1754(ra) # 61f6 <printf>
      exit(1);
    2b24:	4505                	li	a0,1
    2b26:	00003097          	auipc	ra,0x3
    2b2a:	352080e7          	jalr	850(ra) # 5e78 <exit>
    printf("%s: sbrk test fork failed\n", s);
    2b2e:	85d6                	mv	a1,s5
    2b30:	00004517          	auipc	a0,0x4
    2b34:	6d050513          	addi	a0,a0,1744 # 7200 <malloc+0xf4e>
    2b38:	00003097          	auipc	ra,0x3
    2b3c:	6be080e7          	jalr	1726(ra) # 61f6 <printf>
    exit(1);
    2b40:	4505                	li	a0,1
    2b42:	00003097          	auipc	ra,0x3
    2b46:	336080e7          	jalr	822(ra) # 5e78 <exit>
  if(pid == 0)
    2b4a:	00091763          	bnez	s2,2b58 <sbrkbasic+0x190>
    exit(0);
    2b4e:	4501                	li	a0,0
    2b50:	00003097          	auipc	ra,0x3
    2b54:	328080e7          	jalr	808(ra) # 5e78 <exit>
  wait(&xstatus);
    2b58:	fbc40513          	addi	a0,s0,-68
    2b5c:	00003097          	auipc	ra,0x3
    2b60:	324080e7          	jalr	804(ra) # 5e80 <wait>
  exit(xstatus);
    2b64:	fbc42503          	lw	a0,-68(s0)
    2b68:	00003097          	auipc	ra,0x3
    2b6c:	310080e7          	jalr	784(ra) # 5e78 <exit>

0000000000002b70 <sbrkmuch>:
{
    2b70:	7179                	addi	sp,sp,-48
    2b72:	f406                	sd	ra,40(sp)
    2b74:	f022                	sd	s0,32(sp)
    2b76:	ec26                	sd	s1,24(sp)
    2b78:	e84a                	sd	s2,16(sp)
    2b7a:	e44e                	sd	s3,8(sp)
    2b7c:	e052                	sd	s4,0(sp)
    2b7e:	1800                	addi	s0,sp,48
    2b80:	89aa                	mv	s3,a0
  oldbrk = sbrk(0);
    2b82:	4501                	li	a0,0
    2b84:	00003097          	auipc	ra,0x3
    2b88:	37c080e7          	jalr	892(ra) # 5f00 <sbrk>
    2b8c:	892a                	mv	s2,a0
  a = sbrk(0);
    2b8e:	4501                	li	a0,0
    2b90:	00003097          	auipc	ra,0x3
    2b94:	370080e7          	jalr	880(ra) # 5f00 <sbrk>
    2b98:	84aa                	mv	s1,a0
  p = sbrk(amt);
    2b9a:	06400537          	lui	a0,0x6400
    2b9e:	9d05                	subw	a0,a0,s1
    2ba0:	00003097          	auipc	ra,0x3
    2ba4:	360080e7          	jalr	864(ra) # 5f00 <sbrk>
  if (p != a) {
    2ba8:	0ca49863          	bne	s1,a0,2c78 <sbrkmuch+0x108>
  char *eee = sbrk(0);
    2bac:	4501                	li	a0,0
    2bae:	00003097          	auipc	ra,0x3
    2bb2:	352080e7          	jalr	850(ra) # 5f00 <sbrk>
    2bb6:	87aa                	mv	a5,a0
  for(char *pp = a; pp < eee; pp += 4096)
    2bb8:	00a4f963          	bgeu	s1,a0,2bca <sbrkmuch+0x5a>
    *pp = 1;
    2bbc:	4685                	li	a3,1
  for(char *pp = a; pp < eee; pp += 4096)
    2bbe:	6705                	lui	a4,0x1
    *pp = 1;
    2bc0:	00d48023          	sb	a3,0(s1)
  for(char *pp = a; pp < eee; pp += 4096)
    2bc4:	94ba                	add	s1,s1,a4
    2bc6:	fef4ede3          	bltu	s1,a5,2bc0 <sbrkmuch+0x50>
  *lastaddr = 99;
    2bca:	064007b7          	lui	a5,0x6400
    2bce:	06300713          	li	a4,99
    2bd2:	fee78fa3          	sb	a4,-1(a5) # 63fffff <base+0x63f0387>
  a = sbrk(0);
    2bd6:	4501                	li	a0,0
    2bd8:	00003097          	auipc	ra,0x3
    2bdc:	328080e7          	jalr	808(ra) # 5f00 <sbrk>
    2be0:	84aa                	mv	s1,a0
  c = sbrk(-PGSIZE);
    2be2:	757d                	lui	a0,0xfffff
    2be4:	00003097          	auipc	ra,0x3
    2be8:	31c080e7          	jalr	796(ra) # 5f00 <sbrk>
  if(c == (char*)0xffffffffffffffffL){
    2bec:	57fd                	li	a5,-1
    2bee:	0af50363          	beq	a0,a5,2c94 <sbrkmuch+0x124>
  c = sbrk(0);
    2bf2:	4501                	li	a0,0
    2bf4:	00003097          	auipc	ra,0x3
    2bf8:	30c080e7          	jalr	780(ra) # 5f00 <sbrk>
  if(c != a - PGSIZE){
    2bfc:	77fd                	lui	a5,0xfffff
    2bfe:	97a6                	add	a5,a5,s1
    2c00:	0af51863          	bne	a0,a5,2cb0 <sbrkmuch+0x140>
  a = sbrk(0);
    2c04:	4501                	li	a0,0
    2c06:	00003097          	auipc	ra,0x3
    2c0a:	2fa080e7          	jalr	762(ra) # 5f00 <sbrk>
    2c0e:	84aa                	mv	s1,a0
  c = sbrk(PGSIZE);
    2c10:	6505                	lui	a0,0x1
    2c12:	00003097          	auipc	ra,0x3
    2c16:	2ee080e7          	jalr	750(ra) # 5f00 <sbrk>
    2c1a:	8a2a                	mv	s4,a0
  if(c != a || sbrk(0) != a + PGSIZE){
    2c1c:	0aa49a63          	bne	s1,a0,2cd0 <sbrkmuch+0x160>
    2c20:	4501                	li	a0,0
    2c22:	00003097          	auipc	ra,0x3
    2c26:	2de080e7          	jalr	734(ra) # 5f00 <sbrk>
    2c2a:	6785                	lui	a5,0x1
    2c2c:	97a6                	add	a5,a5,s1
    2c2e:	0af51163          	bne	a0,a5,2cd0 <sbrkmuch+0x160>
  if(*lastaddr == 99){
    2c32:	064007b7          	lui	a5,0x6400
    2c36:	fff7c703          	lbu	a4,-1(a5) # 63fffff <base+0x63f0387>
    2c3a:	06300793          	li	a5,99
    2c3e:	0af70963          	beq	a4,a5,2cf0 <sbrkmuch+0x180>
  a = sbrk(0);
    2c42:	4501                	li	a0,0
    2c44:	00003097          	auipc	ra,0x3
    2c48:	2bc080e7          	jalr	700(ra) # 5f00 <sbrk>
    2c4c:	84aa                	mv	s1,a0
  c = sbrk(-(sbrk(0) - oldbrk));
    2c4e:	4501                	li	a0,0
    2c50:	00003097          	auipc	ra,0x3
    2c54:	2b0080e7          	jalr	688(ra) # 5f00 <sbrk>
    2c58:	40a9053b          	subw	a0,s2,a0
    2c5c:	00003097          	auipc	ra,0x3
    2c60:	2a4080e7          	jalr	676(ra) # 5f00 <sbrk>
  if(c != a){
    2c64:	0aa49463          	bne	s1,a0,2d0c <sbrkmuch+0x19c>
}
    2c68:	70a2                	ld	ra,40(sp)
    2c6a:	7402                	ld	s0,32(sp)
    2c6c:	64e2                	ld	s1,24(sp)
    2c6e:	6942                	ld	s2,16(sp)
    2c70:	69a2                	ld	s3,8(sp)
    2c72:	6a02                	ld	s4,0(sp)
    2c74:	6145                	addi	sp,sp,48
    2c76:	8082                	ret
    printf("%s: sbrk test failed to grow big address space; enough phys mem?\n", s);
    2c78:	85ce                	mv	a1,s3
    2c7a:	00004517          	auipc	a0,0x4
    2c7e:	5c650513          	addi	a0,a0,1478 # 7240 <malloc+0xf8e>
    2c82:	00003097          	auipc	ra,0x3
    2c86:	574080e7          	jalr	1396(ra) # 61f6 <printf>
    exit(1);
    2c8a:	4505                	li	a0,1
    2c8c:	00003097          	auipc	ra,0x3
    2c90:	1ec080e7          	jalr	492(ra) # 5e78 <exit>
    printf("%s: sbrk could not deallocate\n", s);
    2c94:	85ce                	mv	a1,s3
    2c96:	00004517          	auipc	a0,0x4
    2c9a:	5f250513          	addi	a0,a0,1522 # 7288 <malloc+0xfd6>
    2c9e:	00003097          	auipc	ra,0x3
    2ca2:	558080e7          	jalr	1368(ra) # 61f6 <printf>
    exit(1);
    2ca6:	4505                	li	a0,1
    2ca8:	00003097          	auipc	ra,0x3
    2cac:	1d0080e7          	jalr	464(ra) # 5e78 <exit>
    printf("%s: sbrk deallocation produced wrong address, a %x c %x\n", s, a, c);
    2cb0:	86aa                	mv	a3,a0
    2cb2:	8626                	mv	a2,s1
    2cb4:	85ce                	mv	a1,s3
    2cb6:	00004517          	auipc	a0,0x4
    2cba:	5f250513          	addi	a0,a0,1522 # 72a8 <malloc+0xff6>
    2cbe:	00003097          	auipc	ra,0x3
    2cc2:	538080e7          	jalr	1336(ra) # 61f6 <printf>
    exit(1);
    2cc6:	4505                	li	a0,1
    2cc8:	00003097          	auipc	ra,0x3
    2ccc:	1b0080e7          	jalr	432(ra) # 5e78 <exit>
    printf("%s: sbrk re-allocation failed, a %x c %x\n", s, a, c);
    2cd0:	86d2                	mv	a3,s4
    2cd2:	8626                	mv	a2,s1
    2cd4:	85ce                	mv	a1,s3
    2cd6:	00004517          	auipc	a0,0x4
    2cda:	61250513          	addi	a0,a0,1554 # 72e8 <malloc+0x1036>
    2cde:	00003097          	auipc	ra,0x3
    2ce2:	518080e7          	jalr	1304(ra) # 61f6 <printf>
    exit(1);
    2ce6:	4505                	li	a0,1
    2ce8:	00003097          	auipc	ra,0x3
    2cec:	190080e7          	jalr	400(ra) # 5e78 <exit>
    printf("%s: sbrk de-allocation didn't really deallocate\n", s);
    2cf0:	85ce                	mv	a1,s3
    2cf2:	00004517          	auipc	a0,0x4
    2cf6:	62650513          	addi	a0,a0,1574 # 7318 <malloc+0x1066>
    2cfa:	00003097          	auipc	ra,0x3
    2cfe:	4fc080e7          	jalr	1276(ra) # 61f6 <printf>
    exit(1);
    2d02:	4505                	li	a0,1
    2d04:	00003097          	auipc	ra,0x3
    2d08:	174080e7          	jalr	372(ra) # 5e78 <exit>
    printf("%s: sbrk downsize failed, a %x c %x\n", s, a, c);
    2d0c:	86aa                	mv	a3,a0
    2d0e:	8626                	mv	a2,s1
    2d10:	85ce                	mv	a1,s3
    2d12:	00004517          	auipc	a0,0x4
    2d16:	63e50513          	addi	a0,a0,1598 # 7350 <malloc+0x109e>
    2d1a:	00003097          	auipc	ra,0x3
    2d1e:	4dc080e7          	jalr	1244(ra) # 61f6 <printf>
    exit(1);
    2d22:	4505                	li	a0,1
    2d24:	00003097          	auipc	ra,0x3
    2d28:	154080e7          	jalr	340(ra) # 5e78 <exit>

0000000000002d2c <sbrkarg>:
{
    2d2c:	7179                	addi	sp,sp,-48
    2d2e:	f406                	sd	ra,40(sp)
    2d30:	f022                	sd	s0,32(sp)
    2d32:	ec26                	sd	s1,24(sp)
    2d34:	e84a                	sd	s2,16(sp)
    2d36:	e44e                	sd	s3,8(sp)
    2d38:	1800                	addi	s0,sp,48
    2d3a:	89aa                	mv	s3,a0
  a = sbrk(PGSIZE);
    2d3c:	6505                	lui	a0,0x1
    2d3e:	00003097          	auipc	ra,0x3
    2d42:	1c2080e7          	jalr	450(ra) # 5f00 <sbrk>
    2d46:	892a                	mv	s2,a0
  fd = open("sbrk", O_CREATE|O_WRONLY);
    2d48:	20100593          	li	a1,513
    2d4c:	00004517          	auipc	a0,0x4
    2d50:	62c50513          	addi	a0,a0,1580 # 7378 <malloc+0x10c6>
    2d54:	00003097          	auipc	ra,0x3
    2d58:	164080e7          	jalr	356(ra) # 5eb8 <open>
    2d5c:	84aa                	mv	s1,a0
  unlink("sbrk");
    2d5e:	00004517          	auipc	a0,0x4
    2d62:	61a50513          	addi	a0,a0,1562 # 7378 <malloc+0x10c6>
    2d66:	00003097          	auipc	ra,0x3
    2d6a:	162080e7          	jalr	354(ra) # 5ec8 <unlink>
  if(fd < 0)  {
    2d6e:	0404c163          	bltz	s1,2db0 <sbrkarg+0x84>
  if ((n = write(fd, a, PGSIZE)) < 0) {
    2d72:	6605                	lui	a2,0x1
    2d74:	85ca                	mv	a1,s2
    2d76:	8526                	mv	a0,s1
    2d78:	00003097          	auipc	ra,0x3
    2d7c:	120080e7          	jalr	288(ra) # 5e98 <write>
    2d80:	04054663          	bltz	a0,2dcc <sbrkarg+0xa0>
  close(fd);
    2d84:	8526                	mv	a0,s1
    2d86:	00003097          	auipc	ra,0x3
    2d8a:	11a080e7          	jalr	282(ra) # 5ea0 <close>
  a = sbrk(PGSIZE);
    2d8e:	6505                	lui	a0,0x1
    2d90:	00003097          	auipc	ra,0x3
    2d94:	170080e7          	jalr	368(ra) # 5f00 <sbrk>
  if(pipe((int *) a) != 0){
    2d98:	00003097          	auipc	ra,0x3
    2d9c:	0f0080e7          	jalr	240(ra) # 5e88 <pipe>
    2da0:	e521                	bnez	a0,2de8 <sbrkarg+0xbc>
}
    2da2:	70a2                	ld	ra,40(sp)
    2da4:	7402                	ld	s0,32(sp)
    2da6:	64e2                	ld	s1,24(sp)
    2da8:	6942                	ld	s2,16(sp)
    2daa:	69a2                	ld	s3,8(sp)
    2dac:	6145                	addi	sp,sp,48
    2dae:	8082                	ret
    printf("%s: open sbrk failed\n", s);
    2db0:	85ce                	mv	a1,s3
    2db2:	00004517          	auipc	a0,0x4
    2db6:	5ce50513          	addi	a0,a0,1486 # 7380 <malloc+0x10ce>
    2dba:	00003097          	auipc	ra,0x3
    2dbe:	43c080e7          	jalr	1084(ra) # 61f6 <printf>
    exit(1);
    2dc2:	4505                	li	a0,1
    2dc4:	00003097          	auipc	ra,0x3
    2dc8:	0b4080e7          	jalr	180(ra) # 5e78 <exit>
    printf("%s: write sbrk failed\n", s);
    2dcc:	85ce                	mv	a1,s3
    2dce:	00004517          	auipc	a0,0x4
    2dd2:	5ca50513          	addi	a0,a0,1482 # 7398 <malloc+0x10e6>
    2dd6:	00003097          	auipc	ra,0x3
    2dda:	420080e7          	jalr	1056(ra) # 61f6 <printf>
    exit(1);
    2dde:	4505                	li	a0,1
    2de0:	00003097          	auipc	ra,0x3
    2de4:	098080e7          	jalr	152(ra) # 5e78 <exit>
    printf("%s: pipe() failed\n", s);
    2de8:	85ce                	mv	a1,s3
    2dea:	00004517          	auipc	a0,0x4
    2dee:	f8e50513          	addi	a0,a0,-114 # 6d78 <malloc+0xac6>
    2df2:	00003097          	auipc	ra,0x3
    2df6:	404080e7          	jalr	1028(ra) # 61f6 <printf>
    exit(1);
    2dfa:	4505                	li	a0,1
    2dfc:	00003097          	auipc	ra,0x3
    2e00:	07c080e7          	jalr	124(ra) # 5e78 <exit>

0000000000002e04 <argptest>:
{
    2e04:	1101                	addi	sp,sp,-32
    2e06:	ec06                	sd	ra,24(sp)
    2e08:	e822                	sd	s0,16(sp)
    2e0a:	e426                	sd	s1,8(sp)
    2e0c:	e04a                	sd	s2,0(sp)
    2e0e:	1000                	addi	s0,sp,32
    2e10:	892a                	mv	s2,a0
  fd = open("init", O_RDONLY);
    2e12:	4581                	li	a1,0
    2e14:	00004517          	auipc	a0,0x4
    2e18:	59c50513          	addi	a0,a0,1436 # 73b0 <malloc+0x10fe>
    2e1c:	00003097          	auipc	ra,0x3
    2e20:	09c080e7          	jalr	156(ra) # 5eb8 <open>
  if (fd < 0) {
    2e24:	02054b63          	bltz	a0,2e5a <argptest+0x56>
    2e28:	84aa                	mv	s1,a0
  read(fd, sbrk(0) - 1, -1);
    2e2a:	4501                	li	a0,0
    2e2c:	00003097          	auipc	ra,0x3
    2e30:	0d4080e7          	jalr	212(ra) # 5f00 <sbrk>
    2e34:	567d                	li	a2,-1
    2e36:	00c505b3          	add	a1,a0,a2
    2e3a:	8526                	mv	a0,s1
    2e3c:	00003097          	auipc	ra,0x3
    2e40:	054080e7          	jalr	84(ra) # 5e90 <read>
  close(fd);
    2e44:	8526                	mv	a0,s1
    2e46:	00003097          	auipc	ra,0x3
    2e4a:	05a080e7          	jalr	90(ra) # 5ea0 <close>
}
    2e4e:	60e2                	ld	ra,24(sp)
    2e50:	6442                	ld	s0,16(sp)
    2e52:	64a2                	ld	s1,8(sp)
    2e54:	6902                	ld	s2,0(sp)
    2e56:	6105                	addi	sp,sp,32
    2e58:	8082                	ret
    printf("%s: open failed\n", s);
    2e5a:	85ca                	mv	a1,s2
    2e5c:	00004517          	auipc	a0,0x4
    2e60:	e2c50513          	addi	a0,a0,-468 # 6c88 <malloc+0x9d6>
    2e64:	00003097          	auipc	ra,0x3
    2e68:	392080e7          	jalr	914(ra) # 61f6 <printf>
    exit(1);
    2e6c:	4505                	li	a0,1
    2e6e:	00003097          	auipc	ra,0x3
    2e72:	00a080e7          	jalr	10(ra) # 5e78 <exit>

0000000000002e76 <sbrkbugs>:
{
    2e76:	1141                	addi	sp,sp,-16
    2e78:	e406                	sd	ra,8(sp)
    2e7a:	e022                	sd	s0,0(sp)
    2e7c:	0800                	addi	s0,sp,16
  int pid = fork();
    2e7e:	00003097          	auipc	ra,0x3
    2e82:	ff2080e7          	jalr	-14(ra) # 5e70 <fork>
  if(pid < 0){
    2e86:	02054263          	bltz	a0,2eaa <sbrkbugs+0x34>
  if(pid == 0){
    2e8a:	ed0d                	bnez	a0,2ec4 <sbrkbugs+0x4e>
    int sz = (uint64) sbrk(0);
    2e8c:	00003097          	auipc	ra,0x3
    2e90:	074080e7          	jalr	116(ra) # 5f00 <sbrk>
    sbrk(-sz);
    2e94:	40a0053b          	negw	a0,a0
    2e98:	00003097          	auipc	ra,0x3
    2e9c:	068080e7          	jalr	104(ra) # 5f00 <sbrk>
    exit(0);
    2ea0:	4501                	li	a0,0
    2ea2:	00003097          	auipc	ra,0x3
    2ea6:	fd6080e7          	jalr	-42(ra) # 5e78 <exit>
    printf("fork failed\n");
    2eaa:	00004517          	auipc	a0,0x4
    2eae:	1ce50513          	addi	a0,a0,462 # 7078 <malloc+0xdc6>
    2eb2:	00003097          	auipc	ra,0x3
    2eb6:	344080e7          	jalr	836(ra) # 61f6 <printf>
    exit(1);
    2eba:	4505                	li	a0,1
    2ebc:	00003097          	auipc	ra,0x3
    2ec0:	fbc080e7          	jalr	-68(ra) # 5e78 <exit>
  wait(0);
    2ec4:	4501                	li	a0,0
    2ec6:	00003097          	auipc	ra,0x3
    2eca:	fba080e7          	jalr	-70(ra) # 5e80 <wait>
  pid = fork();
    2ece:	00003097          	auipc	ra,0x3
    2ed2:	fa2080e7          	jalr	-94(ra) # 5e70 <fork>
  if(pid < 0){
    2ed6:	02054563          	bltz	a0,2f00 <sbrkbugs+0x8a>
  if(pid == 0){
    2eda:	e121                	bnez	a0,2f1a <sbrkbugs+0xa4>
    int sz = (uint64) sbrk(0);
    2edc:	00003097          	auipc	ra,0x3
    2ee0:	024080e7          	jalr	36(ra) # 5f00 <sbrk>
    sbrk(-(sz - 3500));
    2ee4:	6785                	lui	a5,0x1
    2ee6:	dac7879b          	addiw	a5,a5,-596 # dac <unlinkread+0x1e>
    2eea:	40a7853b          	subw	a0,a5,a0
    2eee:	00003097          	auipc	ra,0x3
    2ef2:	012080e7          	jalr	18(ra) # 5f00 <sbrk>
    exit(0);
    2ef6:	4501                	li	a0,0
    2ef8:	00003097          	auipc	ra,0x3
    2efc:	f80080e7          	jalr	-128(ra) # 5e78 <exit>
    printf("fork failed\n");
    2f00:	00004517          	auipc	a0,0x4
    2f04:	17850513          	addi	a0,a0,376 # 7078 <malloc+0xdc6>
    2f08:	00003097          	auipc	ra,0x3
    2f0c:	2ee080e7          	jalr	750(ra) # 61f6 <printf>
    exit(1);
    2f10:	4505                	li	a0,1
    2f12:	00003097          	auipc	ra,0x3
    2f16:	f66080e7          	jalr	-154(ra) # 5e78 <exit>
  wait(0);
    2f1a:	4501                	li	a0,0
    2f1c:	00003097          	auipc	ra,0x3
    2f20:	f64080e7          	jalr	-156(ra) # 5e80 <wait>
  pid = fork();
    2f24:	00003097          	auipc	ra,0x3
    2f28:	f4c080e7          	jalr	-180(ra) # 5e70 <fork>
  if(pid < 0){
    2f2c:	02054a63          	bltz	a0,2f60 <sbrkbugs+0xea>
  if(pid == 0){
    2f30:	e529                	bnez	a0,2f7a <sbrkbugs+0x104>
    sbrk((10*4096 + 2048) - (uint64)sbrk(0));
    2f32:	00003097          	auipc	ra,0x3
    2f36:	fce080e7          	jalr	-50(ra) # 5f00 <sbrk>
    2f3a:	67ad                	lui	a5,0xb
    2f3c:	8007879b          	addiw	a5,a5,-2048 # a800 <uninit+0x298>
    2f40:	40a7853b          	subw	a0,a5,a0
    2f44:	00003097          	auipc	ra,0x3
    2f48:	fbc080e7          	jalr	-68(ra) # 5f00 <sbrk>
    sbrk(-10);
    2f4c:	5559                	li	a0,-10
    2f4e:	00003097          	auipc	ra,0x3
    2f52:	fb2080e7          	jalr	-78(ra) # 5f00 <sbrk>
    exit(0);
    2f56:	4501                	li	a0,0
    2f58:	00003097          	auipc	ra,0x3
    2f5c:	f20080e7          	jalr	-224(ra) # 5e78 <exit>
    printf("fork failed\n");
    2f60:	00004517          	auipc	a0,0x4
    2f64:	11850513          	addi	a0,a0,280 # 7078 <malloc+0xdc6>
    2f68:	00003097          	auipc	ra,0x3
    2f6c:	28e080e7          	jalr	654(ra) # 61f6 <printf>
    exit(1);
    2f70:	4505                	li	a0,1
    2f72:	00003097          	auipc	ra,0x3
    2f76:	f06080e7          	jalr	-250(ra) # 5e78 <exit>
  wait(0);
    2f7a:	4501                	li	a0,0
    2f7c:	00003097          	auipc	ra,0x3
    2f80:	f04080e7          	jalr	-252(ra) # 5e80 <wait>
  exit(0);
    2f84:	4501                	li	a0,0
    2f86:	00003097          	auipc	ra,0x3
    2f8a:	ef2080e7          	jalr	-270(ra) # 5e78 <exit>

0000000000002f8e <sbrklast>:
{
    2f8e:	7179                	addi	sp,sp,-48
    2f90:	f406                	sd	ra,40(sp)
    2f92:	f022                	sd	s0,32(sp)
    2f94:	ec26                	sd	s1,24(sp)
    2f96:	e84a                	sd	s2,16(sp)
    2f98:	e44e                	sd	s3,8(sp)
    2f9a:	e052                	sd	s4,0(sp)
    2f9c:	1800                	addi	s0,sp,48
  uint64 top = (uint64) sbrk(0);
    2f9e:	4501                	li	a0,0
    2fa0:	00003097          	auipc	ra,0x3
    2fa4:	f60080e7          	jalr	-160(ra) # 5f00 <sbrk>
  if((top % 4096) != 0)
    2fa8:	03451793          	slli	a5,a0,0x34
    2fac:	ebd9                	bnez	a5,3042 <sbrklast+0xb4>
  sbrk(4096);
    2fae:	6505                	lui	a0,0x1
    2fb0:	00003097          	auipc	ra,0x3
    2fb4:	f50080e7          	jalr	-176(ra) # 5f00 <sbrk>
  sbrk(10);
    2fb8:	4529                	li	a0,10
    2fba:	00003097          	auipc	ra,0x3
    2fbe:	f46080e7          	jalr	-186(ra) # 5f00 <sbrk>
  sbrk(-20);
    2fc2:	5531                	li	a0,-20
    2fc4:	00003097          	auipc	ra,0x3
    2fc8:	f3c080e7          	jalr	-196(ra) # 5f00 <sbrk>
  top = (uint64) sbrk(0);
    2fcc:	4501                	li	a0,0
    2fce:	00003097          	auipc	ra,0x3
    2fd2:	f32080e7          	jalr	-206(ra) # 5f00 <sbrk>
    2fd6:	84aa                	mv	s1,a0
  char *p = (char *) (top - 64);
    2fd8:	fc050913          	addi	s2,a0,-64 # fc0 <linktest+0x7c>
  p[0] = 'x';
    2fdc:	07800a13          	li	s4,120
    2fe0:	fd450023          	sb	s4,-64(a0)
  p[1] = '\0';
    2fe4:	fc0500a3          	sb	zero,-63(a0)
  int fd = open(p, O_RDWR|O_CREATE);
    2fe8:	20200593          	li	a1,514
    2fec:	854a                	mv	a0,s2
    2fee:	00003097          	auipc	ra,0x3
    2ff2:	eca080e7          	jalr	-310(ra) # 5eb8 <open>
    2ff6:	89aa                	mv	s3,a0
  write(fd, p, 1);
    2ff8:	4605                	li	a2,1
    2ffa:	85ca                	mv	a1,s2
    2ffc:	00003097          	auipc	ra,0x3
    3000:	e9c080e7          	jalr	-356(ra) # 5e98 <write>
  close(fd);
    3004:	854e                	mv	a0,s3
    3006:	00003097          	auipc	ra,0x3
    300a:	e9a080e7          	jalr	-358(ra) # 5ea0 <close>
  fd = open(p, O_RDWR);
    300e:	4589                	li	a1,2
    3010:	854a                	mv	a0,s2
    3012:	00003097          	auipc	ra,0x3
    3016:	ea6080e7          	jalr	-346(ra) # 5eb8 <open>
  p[0] = '\0';
    301a:	fc048023          	sb	zero,-64(s1)
  read(fd, p, 1);
    301e:	4605                	li	a2,1
    3020:	85ca                	mv	a1,s2
    3022:	00003097          	auipc	ra,0x3
    3026:	e6e080e7          	jalr	-402(ra) # 5e90 <read>
  if(p[0] != 'x')
    302a:	fc04c783          	lbu	a5,-64(s1)
    302e:	03479563          	bne	a5,s4,3058 <sbrklast+0xca>
}
    3032:	70a2                	ld	ra,40(sp)
    3034:	7402                	ld	s0,32(sp)
    3036:	64e2                	ld	s1,24(sp)
    3038:	6942                	ld	s2,16(sp)
    303a:	69a2                	ld	s3,8(sp)
    303c:	6a02                	ld	s4,0(sp)
    303e:	6145                	addi	sp,sp,48
    3040:	8082                	ret
    sbrk(4096 - (top % 4096));
    3042:	6785                	lui	a5,0x1
    3044:	fff78713          	addi	a4,a5,-1 # fff <linktest+0xbb>
    3048:	8d79                	and	a0,a0,a4
    304a:	40a7853b          	subw	a0,a5,a0
    304e:	00003097          	auipc	ra,0x3
    3052:	eb2080e7          	jalr	-334(ra) # 5f00 <sbrk>
    3056:	bfa1                	j	2fae <sbrklast+0x20>
    exit(1);
    3058:	4505                	li	a0,1
    305a:	00003097          	auipc	ra,0x3
    305e:	e1e080e7          	jalr	-482(ra) # 5e78 <exit>

0000000000003062 <sbrk8000>:
{
    3062:	1141                	addi	sp,sp,-16
    3064:	e406                	sd	ra,8(sp)
    3066:	e022                	sd	s0,0(sp)
    3068:	0800                	addi	s0,sp,16
  sbrk(0x80000004);
    306a:	80000537          	lui	a0,0x80000
    306e:	0511                	addi	a0,a0,4 # ffffffff80000004 <base+0xffffffff7fff038c>
    3070:	00003097          	auipc	ra,0x3
    3074:	e90080e7          	jalr	-368(ra) # 5f00 <sbrk>
  volatile char *top = sbrk(0);
    3078:	4501                	li	a0,0
    307a:	00003097          	auipc	ra,0x3
    307e:	e86080e7          	jalr	-378(ra) # 5f00 <sbrk>
  *(top-1) = *(top-1) + 1;
    3082:	fff54783          	lbu	a5,-1(a0)
    3086:	0785                	addi	a5,a5,1
    3088:	0ff7f793          	zext.b	a5,a5
    308c:	fef50fa3          	sb	a5,-1(a0)
}
    3090:	60a2                	ld	ra,8(sp)
    3092:	6402                	ld	s0,0(sp)
    3094:	0141                	addi	sp,sp,16
    3096:	8082                	ret

0000000000003098 <execout>:
{
    3098:	711d                	addi	sp,sp,-96
    309a:	ec86                	sd	ra,88(sp)
    309c:	e8a2                	sd	s0,80(sp)
    309e:	e4a6                	sd	s1,72(sp)
    30a0:	e0ca                	sd	s2,64(sp)
    30a2:	fc4e                	sd	s3,56(sp)
    30a4:	1080                	addi	s0,sp,96
  for(int avail = 0; avail < 15; avail++){
    30a6:	4901                	li	s2,0
    30a8:	49bd                	li	s3,15
    int pid = fork();
    30aa:	00003097          	auipc	ra,0x3
    30ae:	dc6080e7          	jalr	-570(ra) # 5e70 <fork>
    30b2:	84aa                	mv	s1,a0
    if(pid < 0){
    30b4:	02054263          	bltz	a0,30d8 <execout+0x40>
    } else if(pid == 0){
    30b8:	cd1d                	beqz	a0,30f6 <execout+0x5e>
      wait((int*)0);
    30ba:	4501                	li	a0,0
    30bc:	00003097          	auipc	ra,0x3
    30c0:	dc4080e7          	jalr	-572(ra) # 5e80 <wait>
  for(int avail = 0; avail < 15; avail++){
    30c4:	2905                	addiw	s2,s2,1
    30c6:	ff3912e3          	bne	s2,s3,30aa <execout+0x12>
    30ca:	f852                	sd	s4,48(sp)
    30cc:	f456                	sd	s5,40(sp)
  exit(0);
    30ce:	4501                	li	a0,0
    30d0:	00003097          	auipc	ra,0x3
    30d4:	da8080e7          	jalr	-600(ra) # 5e78 <exit>
    30d8:	f852                	sd	s4,48(sp)
    30da:	f456                	sd	s5,40(sp)
      printf("fork failed\n");
    30dc:	00004517          	auipc	a0,0x4
    30e0:	f9c50513          	addi	a0,a0,-100 # 7078 <malloc+0xdc6>
    30e4:	00003097          	auipc	ra,0x3
    30e8:	112080e7          	jalr	274(ra) # 61f6 <printf>
      exit(1);
    30ec:	4505                	li	a0,1
    30ee:	00003097          	auipc	ra,0x3
    30f2:	d8a080e7          	jalr	-630(ra) # 5e78 <exit>
    30f6:	f852                	sd	s4,48(sp)
    30f8:	f456                	sd	s5,40(sp)
        uint64 a = (uint64) sbrk(4096);
    30fa:	6985                	lui	s3,0x1
        if(a == 0xffffffffffffffffLL)
    30fc:	5a7d                	li	s4,-1
        *(char*)(a + 4096 - 1) = 1;
    30fe:	4a85                	li	s5,1
        uint64 a = (uint64) sbrk(4096);
    3100:	854e                	mv	a0,s3
    3102:	00003097          	auipc	ra,0x3
    3106:	dfe080e7          	jalr	-514(ra) # 5f00 <sbrk>
        if(a == 0xffffffffffffffffLL)
    310a:	01450663          	beq	a0,s4,3116 <execout+0x7e>
        *(char*)(a + 4096 - 1) = 1;
    310e:	954e                	add	a0,a0,s3
    3110:	ff550fa3          	sb	s5,-1(a0)
      while(1){
    3114:	b7f5                	j	3100 <execout+0x68>
        sbrk(-4096);
    3116:	79fd                	lui	s3,0xfffff
      for(int i = 0; i < avail; i++)
    3118:	01205a63          	blez	s2,312c <execout+0x94>
        sbrk(-4096);
    311c:	854e                	mv	a0,s3
    311e:	00003097          	auipc	ra,0x3
    3122:	de2080e7          	jalr	-542(ra) # 5f00 <sbrk>
      for(int i = 0; i < avail; i++)
    3126:	2485                	addiw	s1,s1,1
    3128:	ff249ae3          	bne	s1,s2,311c <execout+0x84>
      close(1);
    312c:	4505                	li	a0,1
    312e:	00003097          	auipc	ra,0x3
    3132:	d72080e7          	jalr	-654(ra) # 5ea0 <close>
      char *args[] = { "echo", "x", 0 };
    3136:	00003517          	auipc	a0,0x3
    313a:	2b250513          	addi	a0,a0,690 # 63e8 <malloc+0x136>
    313e:	faa43423          	sd	a0,-88(s0)
    3142:	00003797          	auipc	a5,0x3
    3146:	31678793          	addi	a5,a5,790 # 6458 <malloc+0x1a6>
    314a:	faf43823          	sd	a5,-80(s0)
    314e:	fa043c23          	sd	zero,-72(s0)
      exec("echo", args);
    3152:	fa840593          	addi	a1,s0,-88
    3156:	00003097          	auipc	ra,0x3
    315a:	d5a080e7          	jalr	-678(ra) # 5eb0 <exec>
      exit(0);
    315e:	4501                	li	a0,0
    3160:	00003097          	auipc	ra,0x3
    3164:	d18080e7          	jalr	-744(ra) # 5e78 <exit>

0000000000003168 <fourteen>:
{
    3168:	1101                	addi	sp,sp,-32
    316a:	ec06                	sd	ra,24(sp)
    316c:	e822                	sd	s0,16(sp)
    316e:	e426                	sd	s1,8(sp)
    3170:	1000                	addi	s0,sp,32
    3172:	84aa                	mv	s1,a0
  if(mkdir("12345678901234") != 0){
    3174:	00004517          	auipc	a0,0x4
    3178:	41450513          	addi	a0,a0,1044 # 7588 <malloc+0x12d6>
    317c:	00003097          	auipc	ra,0x3
    3180:	d64080e7          	jalr	-668(ra) # 5ee0 <mkdir>
    3184:	e165                	bnez	a0,3264 <fourteen+0xfc>
  if(mkdir("12345678901234/123456789012345") != 0){
    3186:	00004517          	auipc	a0,0x4
    318a:	25a50513          	addi	a0,a0,602 # 73e0 <malloc+0x112e>
    318e:	00003097          	auipc	ra,0x3
    3192:	d52080e7          	jalr	-686(ra) # 5ee0 <mkdir>
    3196:	e56d                	bnez	a0,3280 <fourteen+0x118>
  fd = open("123456789012345/123456789012345/123456789012345", O_CREATE);
    3198:	20000593          	li	a1,512
    319c:	00004517          	auipc	a0,0x4
    31a0:	29c50513          	addi	a0,a0,668 # 7438 <malloc+0x1186>
    31a4:	00003097          	auipc	ra,0x3
    31a8:	d14080e7          	jalr	-748(ra) # 5eb8 <open>
  if(fd < 0){
    31ac:	0e054863          	bltz	a0,329c <fourteen+0x134>
  close(fd);
    31b0:	00003097          	auipc	ra,0x3
    31b4:	cf0080e7          	jalr	-784(ra) # 5ea0 <close>
  fd = open("12345678901234/12345678901234/12345678901234", 0);
    31b8:	4581                	li	a1,0
    31ba:	00004517          	auipc	a0,0x4
    31be:	2f650513          	addi	a0,a0,758 # 74b0 <malloc+0x11fe>
    31c2:	00003097          	auipc	ra,0x3
    31c6:	cf6080e7          	jalr	-778(ra) # 5eb8 <open>
  if(fd < 0){
    31ca:	0e054763          	bltz	a0,32b8 <fourteen+0x150>
  close(fd);
    31ce:	00003097          	auipc	ra,0x3
    31d2:	cd2080e7          	jalr	-814(ra) # 5ea0 <close>
  if(mkdir("12345678901234/12345678901234") == 0){
    31d6:	00004517          	auipc	a0,0x4
    31da:	34a50513          	addi	a0,a0,842 # 7520 <malloc+0x126e>
    31de:	00003097          	auipc	ra,0x3
    31e2:	d02080e7          	jalr	-766(ra) # 5ee0 <mkdir>
    31e6:	c57d                	beqz	a0,32d4 <fourteen+0x16c>
  if(mkdir("123456789012345/12345678901234") == 0){
    31e8:	00004517          	auipc	a0,0x4
    31ec:	39050513          	addi	a0,a0,912 # 7578 <malloc+0x12c6>
    31f0:	00003097          	auipc	ra,0x3
    31f4:	cf0080e7          	jalr	-784(ra) # 5ee0 <mkdir>
    31f8:	cd65                	beqz	a0,32f0 <fourteen+0x188>
  unlink("123456789012345/12345678901234");
    31fa:	00004517          	auipc	a0,0x4
    31fe:	37e50513          	addi	a0,a0,894 # 7578 <malloc+0x12c6>
    3202:	00003097          	auipc	ra,0x3
    3206:	cc6080e7          	jalr	-826(ra) # 5ec8 <unlink>
  unlink("12345678901234/12345678901234");
    320a:	00004517          	auipc	a0,0x4
    320e:	31650513          	addi	a0,a0,790 # 7520 <malloc+0x126e>
    3212:	00003097          	auipc	ra,0x3
    3216:	cb6080e7          	jalr	-842(ra) # 5ec8 <unlink>
  unlink("12345678901234/12345678901234/12345678901234");
    321a:	00004517          	auipc	a0,0x4
    321e:	29650513          	addi	a0,a0,662 # 74b0 <malloc+0x11fe>
    3222:	00003097          	auipc	ra,0x3
    3226:	ca6080e7          	jalr	-858(ra) # 5ec8 <unlink>
  unlink("123456789012345/123456789012345/123456789012345");
    322a:	00004517          	auipc	a0,0x4
    322e:	20e50513          	addi	a0,a0,526 # 7438 <malloc+0x1186>
    3232:	00003097          	auipc	ra,0x3
    3236:	c96080e7          	jalr	-874(ra) # 5ec8 <unlink>
  unlink("12345678901234/123456789012345");
    323a:	00004517          	auipc	a0,0x4
    323e:	1a650513          	addi	a0,a0,422 # 73e0 <malloc+0x112e>
    3242:	00003097          	auipc	ra,0x3
    3246:	c86080e7          	jalr	-890(ra) # 5ec8 <unlink>
  unlink("12345678901234");
    324a:	00004517          	auipc	a0,0x4
    324e:	33e50513          	addi	a0,a0,830 # 7588 <malloc+0x12d6>
    3252:	00003097          	auipc	ra,0x3
    3256:	c76080e7          	jalr	-906(ra) # 5ec8 <unlink>
}
    325a:	60e2                	ld	ra,24(sp)
    325c:	6442                	ld	s0,16(sp)
    325e:	64a2                	ld	s1,8(sp)
    3260:	6105                	addi	sp,sp,32
    3262:	8082                	ret
    printf("%s: mkdir 12345678901234 failed\n", s);
    3264:	85a6                	mv	a1,s1
    3266:	00004517          	auipc	a0,0x4
    326a:	15250513          	addi	a0,a0,338 # 73b8 <malloc+0x1106>
    326e:	00003097          	auipc	ra,0x3
    3272:	f88080e7          	jalr	-120(ra) # 61f6 <printf>
    exit(1);
    3276:	4505                	li	a0,1
    3278:	00003097          	auipc	ra,0x3
    327c:	c00080e7          	jalr	-1024(ra) # 5e78 <exit>
    printf("%s: mkdir 12345678901234/123456789012345 failed\n", s);
    3280:	85a6                	mv	a1,s1
    3282:	00004517          	auipc	a0,0x4
    3286:	17e50513          	addi	a0,a0,382 # 7400 <malloc+0x114e>
    328a:	00003097          	auipc	ra,0x3
    328e:	f6c080e7          	jalr	-148(ra) # 61f6 <printf>
    exit(1);
    3292:	4505                	li	a0,1
    3294:	00003097          	auipc	ra,0x3
    3298:	be4080e7          	jalr	-1052(ra) # 5e78 <exit>
    printf("%s: create 123456789012345/123456789012345/123456789012345 failed\n", s);
    329c:	85a6                	mv	a1,s1
    329e:	00004517          	auipc	a0,0x4
    32a2:	1ca50513          	addi	a0,a0,458 # 7468 <malloc+0x11b6>
    32a6:	00003097          	auipc	ra,0x3
    32aa:	f50080e7          	jalr	-176(ra) # 61f6 <printf>
    exit(1);
    32ae:	4505                	li	a0,1
    32b0:	00003097          	auipc	ra,0x3
    32b4:	bc8080e7          	jalr	-1080(ra) # 5e78 <exit>
    printf("%s: open 12345678901234/12345678901234/12345678901234 failed\n", s);
    32b8:	85a6                	mv	a1,s1
    32ba:	00004517          	auipc	a0,0x4
    32be:	22650513          	addi	a0,a0,550 # 74e0 <malloc+0x122e>
    32c2:	00003097          	auipc	ra,0x3
    32c6:	f34080e7          	jalr	-204(ra) # 61f6 <printf>
    exit(1);
    32ca:	4505                	li	a0,1
    32cc:	00003097          	auipc	ra,0x3
    32d0:	bac080e7          	jalr	-1108(ra) # 5e78 <exit>
    printf("%s: mkdir 12345678901234/12345678901234 succeeded!\n", s);
    32d4:	85a6                	mv	a1,s1
    32d6:	00004517          	auipc	a0,0x4
    32da:	26a50513          	addi	a0,a0,618 # 7540 <malloc+0x128e>
    32de:	00003097          	auipc	ra,0x3
    32e2:	f18080e7          	jalr	-232(ra) # 61f6 <printf>
    exit(1);
    32e6:	4505                	li	a0,1
    32e8:	00003097          	auipc	ra,0x3
    32ec:	b90080e7          	jalr	-1136(ra) # 5e78 <exit>
    printf("%s: mkdir 12345678901234/123456789012345 succeeded!\n", s);
    32f0:	85a6                	mv	a1,s1
    32f2:	00004517          	auipc	a0,0x4
    32f6:	2a650513          	addi	a0,a0,678 # 7598 <malloc+0x12e6>
    32fa:	00003097          	auipc	ra,0x3
    32fe:	efc080e7          	jalr	-260(ra) # 61f6 <printf>
    exit(1);
    3302:	4505                	li	a0,1
    3304:	00003097          	auipc	ra,0x3
    3308:	b74080e7          	jalr	-1164(ra) # 5e78 <exit>

000000000000330c <diskfull>:
{
    330c:	b6010113          	addi	sp,sp,-1184
    3310:	48113c23          	sd	ra,1176(sp)
    3314:	48813823          	sd	s0,1168(sp)
    3318:	48913423          	sd	s1,1160(sp)
    331c:	49213023          	sd	s2,1152(sp)
    3320:	47313c23          	sd	s3,1144(sp)
    3324:	47413823          	sd	s4,1136(sp)
    3328:	47513423          	sd	s5,1128(sp)
    332c:	47613023          	sd	s6,1120(sp)
    3330:	45713c23          	sd	s7,1112(sp)
    3334:	45813823          	sd	s8,1104(sp)
    3338:	45913423          	sd	s9,1096(sp)
    333c:	45a13023          	sd	s10,1088(sp)
    3340:	43b13c23          	sd	s11,1080(sp)
    3344:	4a010413          	addi	s0,sp,1184
    3348:	b6a43423          	sd	a0,-1176(s0)
  unlink("diskfulldir");
    334c:	00004517          	auipc	a0,0x4
    3350:	28450513          	addi	a0,a0,644 # 75d0 <malloc+0x131e>
    3354:	00003097          	auipc	ra,0x3
    3358:	b74080e7          	jalr	-1164(ra) # 5ec8 <unlink>
  for(fi = 0; done == 0; fi++){
    335c:	4a81                	li	s5,0
    name[0] = 'b';
    335e:	06200d13          	li	s10,98
    name[1] = 'i';
    3362:	06900c93          	li	s9,105
    name[2] = 'g';
    3366:	06700c13          	li	s8,103
    unlink(name);
    336a:	b7040b13          	addi	s6,s0,-1168
    int fd = open(name, O_CREATE|O_RDWR|O_TRUNC);
    336e:	60200b93          	li	s7,1538
    3372:	10c00d93          	li	s11,268
      if(write(fd, buf, BSIZE) != BSIZE){
    3376:	b9040a13          	addi	s4,s0,-1136
    337a:	aa49                	j	350c <diskfull+0x200>
      printf("%s: could not create file %s\n", s, name);
    337c:	b7040613          	addi	a2,s0,-1168
    3380:	b6843583          	ld	a1,-1176(s0)
    3384:	00004517          	auipc	a0,0x4
    3388:	25c50513          	addi	a0,a0,604 # 75e0 <malloc+0x132e>
    338c:	00003097          	auipc	ra,0x3
    3390:	e6a080e7          	jalr	-406(ra) # 61f6 <printf>
      break;
    3394:	a821                	j	33ac <diskfull+0xa0>
        close(fd);
    3396:	854e                	mv	a0,s3
    3398:	00003097          	auipc	ra,0x3
    339c:	b08080e7          	jalr	-1272(ra) # 5ea0 <close>
    close(fd);
    33a0:	854e                	mv	a0,s3
    33a2:	00003097          	auipc	ra,0x3
    33a6:	afe080e7          	jalr	-1282(ra) # 5ea0 <close>
  for(fi = 0; done == 0; fi++){
    33aa:	2a85                	addiw	s5,s5,1
  for(int i = 0; i < nzz; i++){
    33ac:	4481                	li	s1,0
    name[0] = 'z';
    33ae:	07a00993          	li	s3,122
    unlink(name);
    33b2:	b9040913          	addi	s2,s0,-1136
    int fd = open(name, O_CREATE|O_RDWR|O_TRUNC);
    33b6:	60200a13          	li	s4,1538
  for(int i = 0; i < nzz; i++){
    33ba:	08000b13          	li	s6,128
    name[0] = 'z';
    33be:	b9340823          	sb	s3,-1136(s0)
    name[1] = 'z';
    33c2:	b93408a3          	sb	s3,-1135(s0)
    name[2] = '0' + (i / 32);
    33c6:	41f4d71b          	sraiw	a4,s1,0x1f
    33ca:	01b7571b          	srliw	a4,a4,0x1b
    33ce:	009707bb          	addw	a5,a4,s1
    33d2:	4057d69b          	sraiw	a3,a5,0x5
    33d6:	0306869b          	addiw	a3,a3,48
    33da:	b8d40923          	sb	a3,-1134(s0)
    name[3] = '0' + (i % 32);
    33de:	8bfd                	andi	a5,a5,31
    33e0:	9f99                	subw	a5,a5,a4
    33e2:	0307879b          	addiw	a5,a5,48
    33e6:	b8f409a3          	sb	a5,-1133(s0)
    name[4] = '\0';
    33ea:	b8040a23          	sb	zero,-1132(s0)
    unlink(name);
    33ee:	854a                	mv	a0,s2
    33f0:	00003097          	auipc	ra,0x3
    33f4:	ad8080e7          	jalr	-1320(ra) # 5ec8 <unlink>
    int fd = open(name, O_CREATE|O_RDWR|O_TRUNC);
    33f8:	85d2                	mv	a1,s4
    33fa:	854a                	mv	a0,s2
    33fc:	00003097          	auipc	ra,0x3
    3400:	abc080e7          	jalr	-1348(ra) # 5eb8 <open>
    if(fd < 0)
    3404:	00054963          	bltz	a0,3416 <diskfull+0x10a>
    close(fd);
    3408:	00003097          	auipc	ra,0x3
    340c:	a98080e7          	jalr	-1384(ra) # 5ea0 <close>
  for(int i = 0; i < nzz; i++){
    3410:	2485                	addiw	s1,s1,1
    3412:	fb6496e3          	bne	s1,s6,33be <diskfull+0xb2>
  if(mkdir("diskfulldir") == 0)
    3416:	00004517          	auipc	a0,0x4
    341a:	1ba50513          	addi	a0,a0,442 # 75d0 <malloc+0x131e>
    341e:	00003097          	auipc	ra,0x3
    3422:	ac2080e7          	jalr	-1342(ra) # 5ee0 <mkdir>
    3426:	12050c63          	beqz	a0,355e <diskfull+0x252>
  unlink("diskfulldir");
    342a:	00004517          	auipc	a0,0x4
    342e:	1a650513          	addi	a0,a0,422 # 75d0 <malloc+0x131e>
    3432:	00003097          	auipc	ra,0x3
    3436:	a96080e7          	jalr	-1386(ra) # 5ec8 <unlink>
  for(int i = 0; i < nzz; i++){
    343a:	4481                	li	s1,0
    name[0] = 'z';
    343c:	07a00913          	li	s2,122
    unlink(name);
    3440:	b9040a13          	addi	s4,s0,-1136
  for(int i = 0; i < nzz; i++){
    3444:	08000993          	li	s3,128
    name[0] = 'z';
    3448:	b9240823          	sb	s2,-1136(s0)
    name[1] = 'z';
    344c:	b92408a3          	sb	s2,-1135(s0)
    name[2] = '0' + (i / 32);
    3450:	41f4d71b          	sraiw	a4,s1,0x1f
    3454:	01b7571b          	srliw	a4,a4,0x1b
    3458:	009707bb          	addw	a5,a4,s1
    345c:	4057d69b          	sraiw	a3,a5,0x5
    3460:	0306869b          	addiw	a3,a3,48
    3464:	b8d40923          	sb	a3,-1134(s0)
    name[3] = '0' + (i % 32);
    3468:	8bfd                	andi	a5,a5,31
    346a:	9f99                	subw	a5,a5,a4
    346c:	0307879b          	addiw	a5,a5,48
    3470:	b8f409a3          	sb	a5,-1133(s0)
    name[4] = '\0';
    3474:	b8040a23          	sb	zero,-1132(s0)
    unlink(name);
    3478:	8552                	mv	a0,s4
    347a:	00003097          	auipc	ra,0x3
    347e:	a4e080e7          	jalr	-1458(ra) # 5ec8 <unlink>
  for(int i = 0; i < nzz; i++){
    3482:	2485                	addiw	s1,s1,1
    3484:	fd3492e3          	bne	s1,s3,3448 <diskfull+0x13c>
  for(int i = 0; i < fi; i++){
    3488:	03505f63          	blez	s5,34c6 <diskfull+0x1ba>
    348c:	4481                	li	s1,0
    name[0] = 'b';
    348e:	06200b13          	li	s6,98
    name[1] = 'i';
    3492:	06900a13          	li	s4,105
    name[2] = 'g';
    3496:	06700993          	li	s3,103
    unlink(name);
    349a:	b9040913          	addi	s2,s0,-1136
    name[0] = 'b';
    349e:	b9640823          	sb	s6,-1136(s0)
    name[1] = 'i';
    34a2:	b94408a3          	sb	s4,-1135(s0)
    name[2] = 'g';
    34a6:	b9340923          	sb	s3,-1134(s0)
    name[3] = '0' + i;
    34aa:	0304879b          	addiw	a5,s1,48
    34ae:	b8f409a3          	sb	a5,-1133(s0)
    name[4] = '\0';
    34b2:	b8040a23          	sb	zero,-1132(s0)
    unlink(name);
    34b6:	854a                	mv	a0,s2
    34b8:	00003097          	auipc	ra,0x3
    34bc:	a10080e7          	jalr	-1520(ra) # 5ec8 <unlink>
  for(int i = 0; i < fi; i++){
    34c0:	2485                	addiw	s1,s1,1
    34c2:	fd549ee3          	bne	s1,s5,349e <diskfull+0x192>
}
    34c6:	49813083          	ld	ra,1176(sp)
    34ca:	49013403          	ld	s0,1168(sp)
    34ce:	48813483          	ld	s1,1160(sp)
    34d2:	48013903          	ld	s2,1152(sp)
    34d6:	47813983          	ld	s3,1144(sp)
    34da:	47013a03          	ld	s4,1136(sp)
    34de:	46813a83          	ld	s5,1128(sp)
    34e2:	46013b03          	ld	s6,1120(sp)
    34e6:	45813b83          	ld	s7,1112(sp)
    34ea:	45013c03          	ld	s8,1104(sp)
    34ee:	44813c83          	ld	s9,1096(sp)
    34f2:	44013d03          	ld	s10,1088(sp)
    34f6:	43813d83          	ld	s11,1080(sp)
    34fa:	4a010113          	addi	sp,sp,1184
    34fe:	8082                	ret
    close(fd);
    3500:	854e                	mv	a0,s3
    3502:	00003097          	auipc	ra,0x3
    3506:	99e080e7          	jalr	-1634(ra) # 5ea0 <close>
  for(fi = 0; done == 0; fi++){
    350a:	2a85                	addiw	s5,s5,1
    name[0] = 'b';
    350c:	b7a40823          	sb	s10,-1168(s0)
    name[1] = 'i';
    3510:	b79408a3          	sb	s9,-1167(s0)
    name[2] = 'g';
    3514:	b7840923          	sb	s8,-1166(s0)
    name[3] = '0' + fi;
    3518:	030a879b          	addiw	a5,s5,48
    351c:	b6f409a3          	sb	a5,-1165(s0)
    name[4] = '\0';
    3520:	b6040a23          	sb	zero,-1164(s0)
    unlink(name);
    3524:	855a                	mv	a0,s6
    3526:	00003097          	auipc	ra,0x3
    352a:	9a2080e7          	jalr	-1630(ra) # 5ec8 <unlink>
    int fd = open(name, O_CREATE|O_RDWR|O_TRUNC);
    352e:	85de                	mv	a1,s7
    3530:	855a                	mv	a0,s6
    3532:	00003097          	auipc	ra,0x3
    3536:	986080e7          	jalr	-1658(ra) # 5eb8 <open>
    353a:	89aa                	mv	s3,a0
    if(fd < 0){
    353c:	e40540e3          	bltz	a0,337c <diskfull+0x70>
    3540:	84ee                	mv	s1,s11
      if(write(fd, buf, BSIZE) != BSIZE){
    3542:	40000913          	li	s2,1024
    3546:	864a                	mv	a2,s2
    3548:	85d2                	mv	a1,s4
    354a:	854e                	mv	a0,s3
    354c:	00003097          	auipc	ra,0x3
    3550:	94c080e7          	jalr	-1716(ra) # 5e98 <write>
    3554:	e52511e3          	bne	a0,s2,3396 <diskfull+0x8a>
    for(int i = 0; i < MAXFILE; i++){
    3558:	34fd                	addiw	s1,s1,-1
    355a:	f4f5                	bnez	s1,3546 <diskfull+0x23a>
    355c:	b755                	j	3500 <diskfull+0x1f4>
    printf("%s: mkdir(diskfulldir) unexpectedly succeeded!\n");
    355e:	00004517          	auipc	a0,0x4
    3562:	0a250513          	addi	a0,a0,162 # 7600 <malloc+0x134e>
    3566:	00003097          	auipc	ra,0x3
    356a:	c90080e7          	jalr	-880(ra) # 61f6 <printf>
    356e:	bd75                	j	342a <diskfull+0x11e>

0000000000003570 <iputtest>:
{
    3570:	1101                	addi	sp,sp,-32
    3572:	ec06                	sd	ra,24(sp)
    3574:	e822                	sd	s0,16(sp)
    3576:	e426                	sd	s1,8(sp)
    3578:	1000                	addi	s0,sp,32
    357a:	84aa                	mv	s1,a0
  if(mkdir("iputdir") < 0){
    357c:	00004517          	auipc	a0,0x4
    3580:	0b450513          	addi	a0,a0,180 # 7630 <malloc+0x137e>
    3584:	00003097          	auipc	ra,0x3
    3588:	95c080e7          	jalr	-1700(ra) # 5ee0 <mkdir>
    358c:	04054563          	bltz	a0,35d6 <iputtest+0x66>
  if(chdir("iputdir") < 0){
    3590:	00004517          	auipc	a0,0x4
    3594:	0a050513          	addi	a0,a0,160 # 7630 <malloc+0x137e>
    3598:	00003097          	auipc	ra,0x3
    359c:	950080e7          	jalr	-1712(ra) # 5ee8 <chdir>
    35a0:	04054963          	bltz	a0,35f2 <iputtest+0x82>
  if(unlink("../iputdir") < 0){
    35a4:	00004517          	auipc	a0,0x4
    35a8:	0cc50513          	addi	a0,a0,204 # 7670 <malloc+0x13be>
    35ac:	00003097          	auipc	ra,0x3
    35b0:	91c080e7          	jalr	-1764(ra) # 5ec8 <unlink>
    35b4:	04054d63          	bltz	a0,360e <iputtest+0x9e>
  if(chdir("/") < 0){
    35b8:	00004517          	auipc	a0,0x4
    35bc:	0e850513          	addi	a0,a0,232 # 76a0 <malloc+0x13ee>
    35c0:	00003097          	auipc	ra,0x3
    35c4:	928080e7          	jalr	-1752(ra) # 5ee8 <chdir>
    35c8:	06054163          	bltz	a0,362a <iputtest+0xba>
}
    35cc:	60e2                	ld	ra,24(sp)
    35ce:	6442                	ld	s0,16(sp)
    35d0:	64a2                	ld	s1,8(sp)
    35d2:	6105                	addi	sp,sp,32
    35d4:	8082                	ret
    printf("%s: mkdir failed\n", s);
    35d6:	85a6                	mv	a1,s1
    35d8:	00004517          	auipc	a0,0x4
    35dc:	06050513          	addi	a0,a0,96 # 7638 <malloc+0x1386>
    35e0:	00003097          	auipc	ra,0x3
    35e4:	c16080e7          	jalr	-1002(ra) # 61f6 <printf>
    exit(1);
    35e8:	4505                	li	a0,1
    35ea:	00003097          	auipc	ra,0x3
    35ee:	88e080e7          	jalr	-1906(ra) # 5e78 <exit>
    printf("%s: chdir iputdir failed\n", s);
    35f2:	85a6                	mv	a1,s1
    35f4:	00004517          	auipc	a0,0x4
    35f8:	05c50513          	addi	a0,a0,92 # 7650 <malloc+0x139e>
    35fc:	00003097          	auipc	ra,0x3
    3600:	bfa080e7          	jalr	-1030(ra) # 61f6 <printf>
    exit(1);
    3604:	4505                	li	a0,1
    3606:	00003097          	auipc	ra,0x3
    360a:	872080e7          	jalr	-1934(ra) # 5e78 <exit>
    printf("%s: unlink ../iputdir failed\n", s);
    360e:	85a6                	mv	a1,s1
    3610:	00004517          	auipc	a0,0x4
    3614:	07050513          	addi	a0,a0,112 # 7680 <malloc+0x13ce>
    3618:	00003097          	auipc	ra,0x3
    361c:	bde080e7          	jalr	-1058(ra) # 61f6 <printf>
    exit(1);
    3620:	4505                	li	a0,1
    3622:	00003097          	auipc	ra,0x3
    3626:	856080e7          	jalr	-1962(ra) # 5e78 <exit>
    printf("%s: chdir / failed\n", s);
    362a:	85a6                	mv	a1,s1
    362c:	00004517          	auipc	a0,0x4
    3630:	07c50513          	addi	a0,a0,124 # 76a8 <malloc+0x13f6>
    3634:	00003097          	auipc	ra,0x3
    3638:	bc2080e7          	jalr	-1086(ra) # 61f6 <printf>
    exit(1);
    363c:	4505                	li	a0,1
    363e:	00003097          	auipc	ra,0x3
    3642:	83a080e7          	jalr	-1990(ra) # 5e78 <exit>

0000000000003646 <exitiputtest>:
{
    3646:	7179                	addi	sp,sp,-48
    3648:	f406                	sd	ra,40(sp)
    364a:	f022                	sd	s0,32(sp)
    364c:	ec26                	sd	s1,24(sp)
    364e:	1800                	addi	s0,sp,48
    3650:	84aa                	mv	s1,a0
  pid = fork();
    3652:	00003097          	auipc	ra,0x3
    3656:	81e080e7          	jalr	-2018(ra) # 5e70 <fork>
  if(pid < 0){
    365a:	04054663          	bltz	a0,36a6 <exitiputtest+0x60>
  if(pid == 0){
    365e:	ed45                	bnez	a0,3716 <exitiputtest+0xd0>
    if(mkdir("iputdir") < 0){
    3660:	00004517          	auipc	a0,0x4
    3664:	fd050513          	addi	a0,a0,-48 # 7630 <malloc+0x137e>
    3668:	00003097          	auipc	ra,0x3
    366c:	878080e7          	jalr	-1928(ra) # 5ee0 <mkdir>
    3670:	04054963          	bltz	a0,36c2 <exitiputtest+0x7c>
    if(chdir("iputdir") < 0){
    3674:	00004517          	auipc	a0,0x4
    3678:	fbc50513          	addi	a0,a0,-68 # 7630 <malloc+0x137e>
    367c:	00003097          	auipc	ra,0x3
    3680:	86c080e7          	jalr	-1940(ra) # 5ee8 <chdir>
    3684:	04054d63          	bltz	a0,36de <exitiputtest+0x98>
    if(unlink("../iputdir") < 0){
    3688:	00004517          	auipc	a0,0x4
    368c:	fe850513          	addi	a0,a0,-24 # 7670 <malloc+0x13be>
    3690:	00003097          	auipc	ra,0x3
    3694:	838080e7          	jalr	-1992(ra) # 5ec8 <unlink>
    3698:	06054163          	bltz	a0,36fa <exitiputtest+0xb4>
    exit(0);
    369c:	4501                	li	a0,0
    369e:	00002097          	auipc	ra,0x2
    36a2:	7da080e7          	jalr	2010(ra) # 5e78 <exit>
    printf("%s: fork failed\n", s);
    36a6:	85a6                	mv	a1,s1
    36a8:	00003517          	auipc	a0,0x3
    36ac:	5c850513          	addi	a0,a0,1480 # 6c70 <malloc+0x9be>
    36b0:	00003097          	auipc	ra,0x3
    36b4:	b46080e7          	jalr	-1210(ra) # 61f6 <printf>
    exit(1);
    36b8:	4505                	li	a0,1
    36ba:	00002097          	auipc	ra,0x2
    36be:	7be080e7          	jalr	1982(ra) # 5e78 <exit>
      printf("%s: mkdir failed\n", s);
    36c2:	85a6                	mv	a1,s1
    36c4:	00004517          	auipc	a0,0x4
    36c8:	f7450513          	addi	a0,a0,-140 # 7638 <malloc+0x1386>
    36cc:	00003097          	auipc	ra,0x3
    36d0:	b2a080e7          	jalr	-1238(ra) # 61f6 <printf>
      exit(1);
    36d4:	4505                	li	a0,1
    36d6:	00002097          	auipc	ra,0x2
    36da:	7a2080e7          	jalr	1954(ra) # 5e78 <exit>
      printf("%s: child chdir failed\n", s);
    36de:	85a6                	mv	a1,s1
    36e0:	00004517          	auipc	a0,0x4
    36e4:	fe050513          	addi	a0,a0,-32 # 76c0 <malloc+0x140e>
    36e8:	00003097          	auipc	ra,0x3
    36ec:	b0e080e7          	jalr	-1266(ra) # 61f6 <printf>
      exit(1);
    36f0:	4505                	li	a0,1
    36f2:	00002097          	auipc	ra,0x2
    36f6:	786080e7          	jalr	1926(ra) # 5e78 <exit>
      printf("%s: unlink ../iputdir failed\n", s);
    36fa:	85a6                	mv	a1,s1
    36fc:	00004517          	auipc	a0,0x4
    3700:	f8450513          	addi	a0,a0,-124 # 7680 <malloc+0x13ce>
    3704:	00003097          	auipc	ra,0x3
    3708:	af2080e7          	jalr	-1294(ra) # 61f6 <printf>
      exit(1);
    370c:	4505                	li	a0,1
    370e:	00002097          	auipc	ra,0x2
    3712:	76a080e7          	jalr	1898(ra) # 5e78 <exit>
  wait(&xstatus);
    3716:	fdc40513          	addi	a0,s0,-36
    371a:	00002097          	auipc	ra,0x2
    371e:	766080e7          	jalr	1894(ra) # 5e80 <wait>
  exit(xstatus);
    3722:	fdc42503          	lw	a0,-36(s0)
    3726:	00002097          	auipc	ra,0x2
    372a:	752080e7          	jalr	1874(ra) # 5e78 <exit>

000000000000372e <dirtest>:
{
    372e:	1101                	addi	sp,sp,-32
    3730:	ec06                	sd	ra,24(sp)
    3732:	e822                	sd	s0,16(sp)
    3734:	e426                	sd	s1,8(sp)
    3736:	1000                	addi	s0,sp,32
    3738:	84aa                	mv	s1,a0
  if(mkdir("dir0") < 0){
    373a:	00004517          	auipc	a0,0x4
    373e:	f9e50513          	addi	a0,a0,-98 # 76d8 <malloc+0x1426>
    3742:	00002097          	auipc	ra,0x2
    3746:	79e080e7          	jalr	1950(ra) # 5ee0 <mkdir>
    374a:	04054563          	bltz	a0,3794 <dirtest+0x66>
  if(chdir("dir0") < 0){
    374e:	00004517          	auipc	a0,0x4
    3752:	f8a50513          	addi	a0,a0,-118 # 76d8 <malloc+0x1426>
    3756:	00002097          	auipc	ra,0x2
    375a:	792080e7          	jalr	1938(ra) # 5ee8 <chdir>
    375e:	04054963          	bltz	a0,37b0 <dirtest+0x82>
  if(chdir("..") < 0){
    3762:	00004517          	auipc	a0,0x4
    3766:	f9650513          	addi	a0,a0,-106 # 76f8 <malloc+0x1446>
    376a:	00002097          	auipc	ra,0x2
    376e:	77e080e7          	jalr	1918(ra) # 5ee8 <chdir>
    3772:	04054d63          	bltz	a0,37cc <dirtest+0x9e>
  if(unlink("dir0") < 0){
    3776:	00004517          	auipc	a0,0x4
    377a:	f6250513          	addi	a0,a0,-158 # 76d8 <malloc+0x1426>
    377e:	00002097          	auipc	ra,0x2
    3782:	74a080e7          	jalr	1866(ra) # 5ec8 <unlink>
    3786:	06054163          	bltz	a0,37e8 <dirtest+0xba>
}
    378a:	60e2                	ld	ra,24(sp)
    378c:	6442                	ld	s0,16(sp)
    378e:	64a2                	ld	s1,8(sp)
    3790:	6105                	addi	sp,sp,32
    3792:	8082                	ret
    printf("%s: mkdir failed\n", s);
    3794:	85a6                	mv	a1,s1
    3796:	00004517          	auipc	a0,0x4
    379a:	ea250513          	addi	a0,a0,-350 # 7638 <malloc+0x1386>
    379e:	00003097          	auipc	ra,0x3
    37a2:	a58080e7          	jalr	-1448(ra) # 61f6 <printf>
    exit(1);
    37a6:	4505                	li	a0,1
    37a8:	00002097          	auipc	ra,0x2
    37ac:	6d0080e7          	jalr	1744(ra) # 5e78 <exit>
    printf("%s: chdir dir0 failed\n", s);
    37b0:	85a6                	mv	a1,s1
    37b2:	00004517          	auipc	a0,0x4
    37b6:	f2e50513          	addi	a0,a0,-210 # 76e0 <malloc+0x142e>
    37ba:	00003097          	auipc	ra,0x3
    37be:	a3c080e7          	jalr	-1476(ra) # 61f6 <printf>
    exit(1);
    37c2:	4505                	li	a0,1
    37c4:	00002097          	auipc	ra,0x2
    37c8:	6b4080e7          	jalr	1716(ra) # 5e78 <exit>
    printf("%s: chdir .. failed\n", s);
    37cc:	85a6                	mv	a1,s1
    37ce:	00004517          	auipc	a0,0x4
    37d2:	f3250513          	addi	a0,a0,-206 # 7700 <malloc+0x144e>
    37d6:	00003097          	auipc	ra,0x3
    37da:	a20080e7          	jalr	-1504(ra) # 61f6 <printf>
    exit(1);
    37de:	4505                	li	a0,1
    37e0:	00002097          	auipc	ra,0x2
    37e4:	698080e7          	jalr	1688(ra) # 5e78 <exit>
    printf("%s: unlink dir0 failed\n", s);
    37e8:	85a6                	mv	a1,s1
    37ea:	00004517          	auipc	a0,0x4
    37ee:	f2e50513          	addi	a0,a0,-210 # 7718 <malloc+0x1466>
    37f2:	00003097          	auipc	ra,0x3
    37f6:	a04080e7          	jalr	-1532(ra) # 61f6 <printf>
    exit(1);
    37fa:	4505                	li	a0,1
    37fc:	00002097          	auipc	ra,0x2
    3800:	67c080e7          	jalr	1660(ra) # 5e78 <exit>

0000000000003804 <subdir>:
{
    3804:	1101                	addi	sp,sp,-32
    3806:	ec06                	sd	ra,24(sp)
    3808:	e822                	sd	s0,16(sp)
    380a:	e426                	sd	s1,8(sp)
    380c:	e04a                	sd	s2,0(sp)
    380e:	1000                	addi	s0,sp,32
    3810:	892a                	mv	s2,a0
  unlink("ff");
    3812:	00004517          	auipc	a0,0x4
    3816:	04e50513          	addi	a0,a0,78 # 7860 <malloc+0x15ae>
    381a:	00002097          	auipc	ra,0x2
    381e:	6ae080e7          	jalr	1710(ra) # 5ec8 <unlink>
  if(mkdir("dd") != 0){
    3822:	00004517          	auipc	a0,0x4
    3826:	f0e50513          	addi	a0,a0,-242 # 7730 <malloc+0x147e>
    382a:	00002097          	auipc	ra,0x2
    382e:	6b6080e7          	jalr	1718(ra) # 5ee0 <mkdir>
    3832:	38051663          	bnez	a0,3bbe <subdir+0x3ba>
  fd = open("dd/ff", O_CREATE | O_RDWR);
    3836:	20200593          	li	a1,514
    383a:	00004517          	auipc	a0,0x4
    383e:	f1650513          	addi	a0,a0,-234 # 7750 <malloc+0x149e>
    3842:	00002097          	auipc	ra,0x2
    3846:	676080e7          	jalr	1654(ra) # 5eb8 <open>
    384a:	84aa                	mv	s1,a0
  if(fd < 0){
    384c:	38054763          	bltz	a0,3bda <subdir+0x3d6>
  write(fd, "ff", 2);
    3850:	4609                	li	a2,2
    3852:	00004597          	auipc	a1,0x4
    3856:	00e58593          	addi	a1,a1,14 # 7860 <malloc+0x15ae>
    385a:	00002097          	auipc	ra,0x2
    385e:	63e080e7          	jalr	1598(ra) # 5e98 <write>
  close(fd);
    3862:	8526                	mv	a0,s1
    3864:	00002097          	auipc	ra,0x2
    3868:	63c080e7          	jalr	1596(ra) # 5ea0 <close>
  if(unlink("dd") >= 0){
    386c:	00004517          	auipc	a0,0x4
    3870:	ec450513          	addi	a0,a0,-316 # 7730 <malloc+0x147e>
    3874:	00002097          	auipc	ra,0x2
    3878:	654080e7          	jalr	1620(ra) # 5ec8 <unlink>
    387c:	36055d63          	bgez	a0,3bf6 <subdir+0x3f2>
  if(mkdir("/dd/dd") != 0){
    3880:	00004517          	auipc	a0,0x4
    3884:	f2850513          	addi	a0,a0,-216 # 77a8 <malloc+0x14f6>
    3888:	00002097          	auipc	ra,0x2
    388c:	658080e7          	jalr	1624(ra) # 5ee0 <mkdir>
    3890:	38051163          	bnez	a0,3c12 <subdir+0x40e>
  fd = open("dd/dd/ff", O_CREATE | O_RDWR);
    3894:	20200593          	li	a1,514
    3898:	00004517          	auipc	a0,0x4
    389c:	f3850513          	addi	a0,a0,-200 # 77d0 <malloc+0x151e>
    38a0:	00002097          	auipc	ra,0x2
    38a4:	618080e7          	jalr	1560(ra) # 5eb8 <open>
    38a8:	84aa                	mv	s1,a0
  if(fd < 0){
    38aa:	38054263          	bltz	a0,3c2e <subdir+0x42a>
  write(fd, "FF", 2);
    38ae:	4609                	li	a2,2
    38b0:	00004597          	auipc	a1,0x4
    38b4:	f5058593          	addi	a1,a1,-176 # 7800 <malloc+0x154e>
    38b8:	00002097          	auipc	ra,0x2
    38bc:	5e0080e7          	jalr	1504(ra) # 5e98 <write>
  close(fd);
    38c0:	8526                	mv	a0,s1
    38c2:	00002097          	auipc	ra,0x2
    38c6:	5de080e7          	jalr	1502(ra) # 5ea0 <close>
  fd = open("dd/dd/../ff", 0);
    38ca:	4581                	li	a1,0
    38cc:	00004517          	auipc	a0,0x4
    38d0:	f3c50513          	addi	a0,a0,-196 # 7808 <malloc+0x1556>
    38d4:	00002097          	auipc	ra,0x2
