
kernel/kernel:     file format elf64-littleriscv


Disassembly of section .text:

0000000080000000 <_entry>:
    80000000:	00009117          	auipc	sp,0x9
    80000004:	c4010113          	addi	sp,sp,-960 # 80008c40 <stack0>
    80000008:	6505                	lui	a0,0x1
    8000000a:	f14025f3          	csrr	a1,mhartid
    8000000e:	0585                	addi	a1,a1,1
    80000010:	02b50533          	mul	a0,a0,a1
    80000014:	912a                	add	sp,sp,a0
    80000016:	078000ef          	jal	8000008e <start>

000000008000001a <spin>:
    8000001a:	a001                	j	8000001a <spin>

000000008000001c <timerinit>:
// at timervec in kernelvec.S,
// which turns them into software interrupts for
// devintr() in trap.c.
void
timerinit()
{
    8000001c:	1141                	addi	sp,sp,-16
    8000001e:	e406                	sd	ra,8(sp)
    80000020:	e022                	sd	s0,0(sp)
    80000022:	0800                	addi	s0,sp,16
// which hart (core) is this?
static inline uint64
r_mhartid()
{
    uint64 x;
    asm volatile("csrr %0, mhartid" : "=r"(x));
    80000024:	f14027f3          	csrr	a5,mhartid
  // each CPU has a separate source of timer interrupts.
  int id = r_mhartid();
    80000028:	2781                	sext.w	a5,a5

  // ask the CLINT for a timer interrupt.
  int interval = 1000000; // cycles; about 1/10th second in qemu.
  *(uint64*)CLINT_MTIMECMP(id) = *(uint64*)CLINT_MTIME + interval;
    8000002a:	0037961b          	slliw	a2,a5,0x3
    8000002e:	02004737          	lui	a4,0x2004
    80000032:	963a                	add	a2,a2,a4
    80000034:	0200c737          	lui	a4,0x200c
    80000038:	ff873703          	ld	a4,-8(a4) # 200bff8 <_entry-0x7dff4008>
    8000003c:	000f46b7          	lui	a3,0xf4
    80000040:	24068693          	addi	a3,a3,576 # f4240 <_entry-0x7ff0bdc0>
    80000044:	9736                	add	a4,a4,a3
    80000046:	e218                	sd	a4,0(a2)

  // prepare information in scratch[] for timervec.
  // scratch[0..2] : space for timervec to save registers.
  // scratch[3] : address of CLINT MTIMECMP register.
  // scratch[4] : desired interval (in cycles) between timer interrupts.
  uint64 *scratch = &timer_scratch[id][0];
    80000048:	00279713          	slli	a4,a5,0x2
    8000004c:	973e                	add	a4,a4,a5
    8000004e:	070e                	slli	a4,a4,0x3
    80000050:	00009797          	auipc	a5,0x9
    80000054:	ab078793          	addi	a5,a5,-1360 # 80008b00 <timer_scratch>
    80000058:	97ba                	add	a5,a5,a4
  scratch[3] = CLINT_MTIMECMP(id);
    8000005a:	ef90                	sd	a2,24(a5)
  scratch[4] = interval;
    8000005c:	f394                	sd	a3,32(a5)
}

static inline void
w_mscratch(uint64 x)
{
    asm volatile("csrw mscratch, %0" : : "r"(x));
    8000005e:	34079073          	csrw	mscratch,a5
    asm volatile("csrw mtvec, %0" : : "r"(x));
    80000062:	00006797          	auipc	a5,0x6
    80000066:	44e78793          	addi	a5,a5,1102 # 800064b0 <timervec>
    8000006a:	30579073          	csrw	mtvec,a5
    asm volatile("csrr %0, mstatus" : "=r"(x));
    8000006e:	300027f3          	csrr	a5,mstatus

  // set the machine-mode trap handler.
  w_mtvec((uint64)timervec);

  // enable machine-mode interrupts.
  w_mstatus(r_mstatus() | MSTATUS_MIE);
    80000072:	0087e793          	ori	a5,a5,8
    asm volatile("csrw mstatus, %0" : : "r"(x));
    80000076:	30079073          	csrw	mstatus,a5
    asm volatile("csrr %0, mie" : "=r"(x));
    8000007a:	304027f3          	csrr	a5,mie

  // enable machine-mode timer interrupts.
  w_mie(r_mie() | MIE_MTIE);
    8000007e:	0807e793          	ori	a5,a5,128
    asm volatile("csrw mie, %0" : : "r"(x));
    80000082:	30479073          	csrw	mie,a5
}
    80000086:	60a2                	ld	ra,8(sp)
    80000088:	6402                	ld	s0,0(sp)
    8000008a:	0141                	addi	sp,sp,16
    8000008c:	8082                	ret

000000008000008e <start>:
{
    8000008e:	1141                	addi	sp,sp,-16
    80000090:	e406                	sd	ra,8(sp)
    80000092:	e022                	sd	s0,0(sp)
    80000094:	0800                	addi	s0,sp,16
    asm volatile("csrr %0, mstatus" : "=r"(x));
    80000096:	300027f3          	csrr	a5,mstatus
  x &= ~MSTATUS_MPP_MASK;
    8000009a:	7779                	lui	a4,0xffffe
    8000009c:	7ff70713          	addi	a4,a4,2047 # ffffffffffffe7ff <end+0xffffffff7fb9c88f>
    800000a0:	8ff9                	and	a5,a5,a4
  x |= MSTATUS_MPP_S;
    800000a2:	6705                	lui	a4,0x1
    800000a4:	80070713          	addi	a4,a4,-2048 # 800 <_entry-0x7ffff800>
    800000a8:	8fd9                	or	a5,a5,a4
    asm volatile("csrw mstatus, %0" : : "r"(x));
    800000aa:	30079073          	csrw	mstatus,a5
    asm volatile("csrw mepc, %0" : : "r"(x));
    800000ae:	00001797          	auipc	a5,0x1
    800000b2:	fca78793          	addi	a5,a5,-54 # 80001078 <main>
    800000b6:	34179073          	csrw	mepc,a5
    asm volatile("csrw satp, %0" : : "r"(x));
    800000ba:	4781                	li	a5,0
    800000bc:	18079073          	csrw	satp,a5
    asm volatile("csrw medeleg, %0" : : "r"(x));
    800000c0:	67c1                	lui	a5,0x10
    800000c2:	17fd                	addi	a5,a5,-1 # ffff <_entry-0x7fff0001>
    800000c4:	30279073          	csrw	medeleg,a5
    asm volatile("csrw mideleg, %0" : : "r"(x));
    800000c8:	30379073          	csrw	mideleg,a5
    asm volatile("csrr %0, sie" : "=r"(x));
    800000cc:	104027f3          	csrr	a5,sie
  w_sie(r_sie() | SIE_SEIE | SIE_STIE | SIE_SSIE);
    800000d0:	2227e793          	ori	a5,a5,546
    asm volatile("csrw sie, %0" : : "r"(x));
    800000d4:	10479073          	csrw	sie,a5
    asm volatile("csrw pmpaddr0, %0" : : "r"(x));
    800000d8:	57fd                	li	a5,-1
    800000da:	83a9                	srli	a5,a5,0xa
    800000dc:	3b079073          	csrw	pmpaddr0,a5
    asm volatile("csrw pmpcfg0, %0" : : "r"(x));
    800000e0:	47bd                	li	a5,15
    800000e2:	3a079073          	csrw	pmpcfg0,a5
  timerinit();
    800000e6:	00000097          	auipc	ra,0x0
    800000ea:	f36080e7          	jalr	-202(ra) # 8000001c <timerinit>
    asm volatile("csrr %0, mhartid" : "=r"(x));
    800000ee:	f14027f3          	csrr	a5,mhartid
  w_tp(id);
    800000f2:	2781                	sext.w	a5,a5
}

static inline void
w_tp(uint64 x)
{
    asm volatile("mv tp, %0" : : "r"(x));
    800000f4:	823e                	mv	tp,a5
  asm volatile("mret");
    800000f6:	30200073          	mret
}
    800000fa:	60a2                	ld	ra,8(sp)
    800000fc:	6402                	ld	s0,0(sp)
    800000fe:	0141                	addi	sp,sp,16
    80000100:	8082                	ret

0000000080000102 <consolewrite>:

//
// user write()s to the console go here.
//
int consolewrite(int user_src, uint64 src, int n)
{
    80000102:	711d                	addi	sp,sp,-96
    80000104:	ec86                	sd	ra,88(sp)
    80000106:	e8a2                	sd	s0,80(sp)
    80000108:	e0ca                	sd	s2,64(sp)
    8000010a:	1080                	addi	s0,sp,96
    int i;

    for (i = 0; i < n; i++)
    8000010c:	04c05c63          	blez	a2,80000164 <consolewrite+0x62>
    80000110:	e4a6                	sd	s1,72(sp)
    80000112:	fc4e                	sd	s3,56(sp)
    80000114:	f852                	sd	s4,48(sp)
    80000116:	f456                	sd	s5,40(sp)
    80000118:	f05a                	sd	s6,32(sp)
    8000011a:	ec5e                	sd	s7,24(sp)
    8000011c:	8a2a                	mv	s4,a0
    8000011e:	84ae                	mv	s1,a1
    80000120:	89b2                	mv	s3,a2
    80000122:	4901                	li	s2,0
    {
        char c;
        if (either_copyin(&c, user_src, src + i, 1) == -1)
    80000124:	faf40b93          	addi	s7,s0,-81
    80000128:	4b05                	li	s6,1
    8000012a:	5afd                	li	s5,-1
    8000012c:	86da                	mv	a3,s6
    8000012e:	8626                	mv	a2,s1
    80000130:	85d2                	mv	a1,s4
    80000132:	855e                	mv	a0,s7
    80000134:	00002097          	auipc	ra,0x2
    80000138:	7f6080e7          	jalr	2038(ra) # 8000292a <either_copyin>
    8000013c:	03550663          	beq	a0,s5,80000168 <consolewrite+0x66>
            break;
        uartputc(c);
    80000140:	faf44503          	lbu	a0,-81(s0)
    80000144:	00000097          	auipc	ra,0x0
    80000148:	7ec080e7          	jalr	2028(ra) # 80000930 <uartputc>
    for (i = 0; i < n; i++)
    8000014c:	2905                	addiw	s2,s2,1
    8000014e:	0485                	addi	s1,s1,1
    80000150:	fd299ee3          	bne	s3,s2,8000012c <consolewrite+0x2a>
    80000154:	894e                	mv	s2,s3
    80000156:	64a6                	ld	s1,72(sp)
    80000158:	79e2                	ld	s3,56(sp)
    8000015a:	7a42                	ld	s4,48(sp)
    8000015c:	7aa2                	ld	s5,40(sp)
    8000015e:	7b02                	ld	s6,32(sp)
    80000160:	6be2                	ld	s7,24(sp)
    80000162:	a809                	j	80000174 <consolewrite+0x72>
    80000164:	4901                	li	s2,0
    80000166:	a039                	j	80000174 <consolewrite+0x72>
    80000168:	64a6                	ld	s1,72(sp)
    8000016a:	79e2                	ld	s3,56(sp)
    8000016c:	7a42                	ld	s4,48(sp)
    8000016e:	7aa2                	ld	s5,40(sp)
    80000170:	7b02                	ld	s6,32(sp)
    80000172:	6be2                	ld	s7,24(sp)
    }

    return i;
}
    80000174:	854a                	mv	a0,s2
    80000176:	60e6                	ld	ra,88(sp)
    80000178:	6446                	ld	s0,80(sp)
    8000017a:	6906                	ld	s2,64(sp)
    8000017c:	6125                	addi	sp,sp,96
    8000017e:	8082                	ret

0000000080000180 <consoleread>:
// copy (up to) a whole input line to dst.
// user_dist indicates whether dst is a user
// or kernel address.
//
int consoleread(int user_dst, uint64 dst, int n)
{
    80000180:	711d                	addi	sp,sp,-96
    80000182:	ec86                	sd	ra,88(sp)
    80000184:	e8a2                	sd	s0,80(sp)
    80000186:	e4a6                	sd	s1,72(sp)
    80000188:	e0ca                	sd	s2,64(sp)
    8000018a:	fc4e                	sd	s3,56(sp)
    8000018c:	f852                	sd	s4,48(sp)
    8000018e:	f456                	sd	s5,40(sp)
    80000190:	f05a                	sd	s6,32(sp)
    80000192:	1080                	addi	s0,sp,96
    80000194:	8aaa                	mv	s5,a0
    80000196:	8a2e                	mv	s4,a1
    80000198:	89b2                	mv	s3,a2
    uint target;
    int c;
    char cbuf;

    target = n;
    8000019a:	8b32                	mv	s6,a2
    acquire(&cons.lock);
    8000019c:	00011517          	auipc	a0,0x11
    800001a0:	aa450513          	addi	a0,a0,-1372 # 80010c40 <cons>
    800001a4:	00001097          	auipc	ra,0x1
    800001a8:	c22080e7          	jalr	-990(ra) # 80000dc6 <acquire>
    while (n > 0)
    {
        // wait until interrupt handler has put some
        // input into cons.buffer.
        while (cons.r == cons.w)
    800001ac:	00011497          	auipc	s1,0x11
    800001b0:	a9448493          	addi	s1,s1,-1388 # 80010c40 <cons>
            if (killed(myproc()))
            {
                release(&cons.lock);
                return -1;
            }
            sleep(&cons.r, &cons.lock);
    800001b4:	00011917          	auipc	s2,0x11
    800001b8:	b2490913          	addi	s2,s2,-1244 # 80010cd8 <cons+0x98>
    while (n > 0)
    800001bc:	0d305563          	blez	s3,80000286 <consoleread+0x106>
        while (cons.r == cons.w)
    800001c0:	0984a783          	lw	a5,152(s1)
    800001c4:	09c4a703          	lw	a4,156(s1)
    800001c8:	0af71a63          	bne	a4,a5,8000027c <consoleread+0xfc>
            if (killed(myproc()))
    800001cc:	00002097          	auipc	ra,0x2
    800001d0:	b52080e7          	jalr	-1198(ra) # 80001d1e <myproc>
    800001d4:	00002097          	auipc	ra,0x2
    800001d8:	5a6080e7          	jalr	1446(ra) # 8000277a <killed>
    800001dc:	e52d                	bnez	a0,80000246 <consoleread+0xc6>
            sleep(&cons.r, &cons.lock);
    800001de:	85a6                	mv	a1,s1
    800001e0:	854a                	mv	a0,s2
    800001e2:	00002097          	auipc	ra,0x2
    800001e6:	2f0080e7          	jalr	752(ra) # 800024d2 <sleep>
        while (cons.r == cons.w)
    800001ea:	0984a783          	lw	a5,152(s1)
    800001ee:	09c4a703          	lw	a4,156(s1)
    800001f2:	fcf70de3          	beq	a4,a5,800001cc <consoleread+0x4c>
    800001f6:	ec5e                	sd	s7,24(sp)
        }

        c = cons.buf[cons.r++ % INPUT_BUF_SIZE];
    800001f8:	00011717          	auipc	a4,0x11
    800001fc:	a4870713          	addi	a4,a4,-1464 # 80010c40 <cons>
    80000200:	0017869b          	addiw	a3,a5,1
    80000204:	08d72c23          	sw	a3,152(a4)
    80000208:	07f7f693          	andi	a3,a5,127
    8000020c:	9736                	add	a4,a4,a3
    8000020e:	01874703          	lbu	a4,24(a4)
    80000212:	00070b9b          	sext.w	s7,a4

        if (c == C('D'))
    80000216:	4691                	li	a3,4
    80000218:	04db8a63          	beq	s7,a3,8000026c <consoleread+0xec>
            }
            break;
        }

        // copy the input byte to the user-space buffer.
        cbuf = c;
    8000021c:	fae407a3          	sb	a4,-81(s0)
        if (either_copyout(user_dst, dst, &cbuf, 1) == -1)
    80000220:	4685                	li	a3,1
    80000222:	faf40613          	addi	a2,s0,-81
    80000226:	85d2                	mv	a1,s4
    80000228:	8556                	mv	a0,s5
    8000022a:	00002097          	auipc	ra,0x2
    8000022e:	6aa080e7          	jalr	1706(ra) # 800028d4 <either_copyout>
    80000232:	57fd                	li	a5,-1
    80000234:	04f50863          	beq	a0,a5,80000284 <consoleread+0x104>
            break;

        dst++;
    80000238:	0a05                	addi	s4,s4,1
        --n;
    8000023a:	39fd                	addiw	s3,s3,-1

        if (c == '\n')
    8000023c:	47a9                	li	a5,10
    8000023e:	04fb8f63          	beq	s7,a5,8000029c <consoleread+0x11c>
    80000242:	6be2                	ld	s7,24(sp)
    80000244:	bfa5                	j	800001bc <consoleread+0x3c>
                release(&cons.lock);
    80000246:	00011517          	auipc	a0,0x11
    8000024a:	9fa50513          	addi	a0,a0,-1542 # 80010c40 <cons>
    8000024e:	00001097          	auipc	ra,0x1
    80000252:	c28080e7          	jalr	-984(ra) # 80000e76 <release>
                return -1;
    80000256:	557d                	li	a0,-1
        }
    }
    release(&cons.lock);

    return target - n;
}
    80000258:	60e6                	ld	ra,88(sp)
    8000025a:	6446                	ld	s0,80(sp)
    8000025c:	64a6                	ld	s1,72(sp)
    8000025e:	6906                	ld	s2,64(sp)
    80000260:	79e2                	ld	s3,56(sp)
    80000262:	7a42                	ld	s4,48(sp)
    80000264:	7aa2                	ld	s5,40(sp)
    80000266:	7b02                	ld	s6,32(sp)
    80000268:	6125                	addi	sp,sp,96
    8000026a:	8082                	ret
            if (n < target)
    8000026c:	0169fa63          	bgeu	s3,s6,80000280 <consoleread+0x100>
                cons.r--;
    80000270:	00011717          	auipc	a4,0x11
    80000274:	a6f72423          	sw	a5,-1432(a4) # 80010cd8 <cons+0x98>
    80000278:	6be2                	ld	s7,24(sp)
    8000027a:	a031                	j	80000286 <consoleread+0x106>
    8000027c:	ec5e                	sd	s7,24(sp)
    8000027e:	bfad                	j	800001f8 <consoleread+0x78>
    80000280:	6be2                	ld	s7,24(sp)
    80000282:	a011                	j	80000286 <consoleread+0x106>
    80000284:	6be2                	ld	s7,24(sp)
    release(&cons.lock);
    80000286:	00011517          	auipc	a0,0x11
    8000028a:	9ba50513          	addi	a0,a0,-1606 # 80010c40 <cons>
    8000028e:	00001097          	auipc	ra,0x1
    80000292:	be8080e7          	jalr	-1048(ra) # 80000e76 <release>
    return target - n;
    80000296:	413b053b          	subw	a0,s6,s3
    8000029a:	bf7d                	j	80000258 <consoleread+0xd8>
    8000029c:	6be2                	ld	s7,24(sp)
    8000029e:	b7e5                	j	80000286 <consoleread+0x106>

00000000800002a0 <consputc>:
{
    800002a0:	1141                	addi	sp,sp,-16
    800002a2:	e406                	sd	ra,8(sp)
    800002a4:	e022                	sd	s0,0(sp)
    800002a6:	0800                	addi	s0,sp,16
    if (c == BACKSPACE)
    800002a8:	10000793          	li	a5,256
    800002ac:	00f50a63          	beq	a0,a5,800002c0 <consputc+0x20>
        uartputc_sync(c);
    800002b0:	00000097          	auipc	ra,0x0
    800002b4:	5a2080e7          	jalr	1442(ra) # 80000852 <uartputc_sync>
}
    800002b8:	60a2                	ld	ra,8(sp)
    800002ba:	6402                	ld	s0,0(sp)
    800002bc:	0141                	addi	sp,sp,16
    800002be:	8082                	ret
        uartputc_sync('\b');
    800002c0:	4521                	li	a0,8
    800002c2:	00000097          	auipc	ra,0x0
    800002c6:	590080e7          	jalr	1424(ra) # 80000852 <uartputc_sync>
        uartputc_sync(' ');
    800002ca:	02000513          	li	a0,32
    800002ce:	00000097          	auipc	ra,0x0
    800002d2:	584080e7          	jalr	1412(ra) # 80000852 <uartputc_sync>
        uartputc_sync('\b');
    800002d6:	4521                	li	a0,8
    800002d8:	00000097          	auipc	ra,0x0
    800002dc:	57a080e7          	jalr	1402(ra) # 80000852 <uartputc_sync>
    800002e0:	bfe1                	j	800002b8 <consputc+0x18>

00000000800002e2 <consoleintr>:
// uartintr() calls this for input character.
// do erase/kill processing, append to cons.buf,
// wake up consoleread() if a whole line has arrived.
//
void consoleintr(int c)
{
    800002e2:	7179                	addi	sp,sp,-48
    800002e4:	f406                	sd	ra,40(sp)
    800002e6:	f022                	sd	s0,32(sp)
    800002e8:	ec26                	sd	s1,24(sp)
    800002ea:	1800                	addi	s0,sp,48
    800002ec:	84aa                	mv	s1,a0
    acquire(&cons.lock);
    800002ee:	00011517          	auipc	a0,0x11
    800002f2:	95250513          	addi	a0,a0,-1710 # 80010c40 <cons>
    800002f6:	00001097          	auipc	ra,0x1
    800002fa:	ad0080e7          	jalr	-1328(ra) # 80000dc6 <acquire>

    switch (c)
    800002fe:	47d5                	li	a5,21
    80000300:	0af48463          	beq	s1,a5,800003a8 <consoleintr+0xc6>
    80000304:	0297c963          	blt	a5,s1,80000336 <consoleintr+0x54>
    80000308:	47a1                	li	a5,8
    8000030a:	10f48063          	beq	s1,a5,8000040a <consoleintr+0x128>
    8000030e:	47c1                	li	a5,16
    80000310:	12f49363          	bne	s1,a5,80000436 <consoleintr+0x154>
    {
    case C('P'): // Print process list.
        procdump();
    80000314:	00002097          	auipc	ra,0x2
    80000318:	66c080e7          	jalr	1644(ra) # 80002980 <procdump>
            }
        }
        break;
    }

    release(&cons.lock);
    8000031c:	00011517          	auipc	a0,0x11
    80000320:	92450513          	addi	a0,a0,-1756 # 80010c40 <cons>
    80000324:	00001097          	auipc	ra,0x1
    80000328:	b52080e7          	jalr	-1198(ra) # 80000e76 <release>
}
    8000032c:	70a2                	ld	ra,40(sp)
    8000032e:	7402                	ld	s0,32(sp)
    80000330:	64e2                	ld	s1,24(sp)
    80000332:	6145                	addi	sp,sp,48
    80000334:	8082                	ret
    switch (c)
    80000336:	07f00793          	li	a5,127
    8000033a:	0cf48863          	beq	s1,a5,8000040a <consoleintr+0x128>
        if (c != 0 && cons.e - cons.r < INPUT_BUF_SIZE)
    8000033e:	00011717          	auipc	a4,0x11
    80000342:	90270713          	addi	a4,a4,-1790 # 80010c40 <cons>
    80000346:	0a072783          	lw	a5,160(a4)
    8000034a:	09872703          	lw	a4,152(a4)
    8000034e:	9f99                	subw	a5,a5,a4
    80000350:	07f00713          	li	a4,127
    80000354:	fcf764e3          	bltu	a4,a5,8000031c <consoleintr+0x3a>
            c = (c == '\r') ? '\n' : c;
    80000358:	47b5                	li	a5,13
    8000035a:	0ef48163          	beq	s1,a5,8000043c <consoleintr+0x15a>
            consputc(c);
    8000035e:	8526                	mv	a0,s1
    80000360:	00000097          	auipc	ra,0x0
    80000364:	f40080e7          	jalr	-192(ra) # 800002a0 <consputc>
            cons.buf[cons.e++ % INPUT_BUF_SIZE] = c;
    80000368:	00011797          	auipc	a5,0x11
    8000036c:	8d878793          	addi	a5,a5,-1832 # 80010c40 <cons>
    80000370:	0a07a683          	lw	a3,160(a5)
    80000374:	0016871b          	addiw	a4,a3,1
    80000378:	863a                	mv	a2,a4
    8000037a:	0ae7a023          	sw	a4,160(a5)
    8000037e:	07f6f693          	andi	a3,a3,127
    80000382:	97b6                	add	a5,a5,a3
    80000384:	00978c23          	sb	s1,24(a5)
            if (c == '\n' || c == C('D') || cons.e - cons.r == INPUT_BUF_SIZE)
    80000388:	47a9                	li	a5,10
    8000038a:	0cf48f63          	beq	s1,a5,80000468 <consoleintr+0x186>
    8000038e:	4791                	li	a5,4
    80000390:	0cf48c63          	beq	s1,a5,80000468 <consoleintr+0x186>
    80000394:	00011797          	auipc	a5,0x11
    80000398:	9447a783          	lw	a5,-1724(a5) # 80010cd8 <cons+0x98>
    8000039c:	9f1d                	subw	a4,a4,a5
    8000039e:	08000793          	li	a5,128
    800003a2:	f6f71de3          	bne	a4,a5,8000031c <consoleintr+0x3a>
    800003a6:	a0c9                	j	80000468 <consoleintr+0x186>
    800003a8:	e84a                	sd	s2,16(sp)
    800003aa:	e44e                	sd	s3,8(sp)
        while (cons.e != cons.w &&
    800003ac:	00011717          	auipc	a4,0x11
    800003b0:	89470713          	addi	a4,a4,-1900 # 80010c40 <cons>
    800003b4:	0a072783          	lw	a5,160(a4)
    800003b8:	09c72703          	lw	a4,156(a4)
               cons.buf[(cons.e - 1) % INPUT_BUF_SIZE] != '\n')
    800003bc:	00011497          	auipc	s1,0x11
    800003c0:	88448493          	addi	s1,s1,-1916 # 80010c40 <cons>
        while (cons.e != cons.w &&
    800003c4:	4929                	li	s2,10
            consputc(BACKSPACE);
    800003c6:	10000993          	li	s3,256
        while (cons.e != cons.w &&
    800003ca:	02f70a63          	beq	a4,a5,800003fe <consoleintr+0x11c>
               cons.buf[(cons.e - 1) % INPUT_BUF_SIZE] != '\n')
    800003ce:	37fd                	addiw	a5,a5,-1
    800003d0:	07f7f713          	andi	a4,a5,127
    800003d4:	9726                	add	a4,a4,s1
        while (cons.e != cons.w &&
    800003d6:	01874703          	lbu	a4,24(a4)
    800003da:	03270563          	beq	a4,s2,80000404 <consoleintr+0x122>
            cons.e--;
    800003de:	0af4a023          	sw	a5,160(s1)
            consputc(BACKSPACE);
    800003e2:	854e                	mv	a0,s3
    800003e4:	00000097          	auipc	ra,0x0
    800003e8:	ebc080e7          	jalr	-324(ra) # 800002a0 <consputc>
        while (cons.e != cons.w &&
    800003ec:	0a04a783          	lw	a5,160(s1)
    800003f0:	09c4a703          	lw	a4,156(s1)
    800003f4:	fcf71de3          	bne	a4,a5,800003ce <consoleintr+0xec>
    800003f8:	6942                	ld	s2,16(sp)
    800003fa:	69a2                	ld	s3,8(sp)
    800003fc:	b705                	j	8000031c <consoleintr+0x3a>
    800003fe:	6942                	ld	s2,16(sp)
    80000400:	69a2                	ld	s3,8(sp)
    80000402:	bf29                	j	8000031c <consoleintr+0x3a>
    80000404:	6942                	ld	s2,16(sp)
    80000406:	69a2                	ld	s3,8(sp)
    80000408:	bf11                	j	8000031c <consoleintr+0x3a>
        if (cons.e != cons.w)
    8000040a:	00011717          	auipc	a4,0x11
    8000040e:	83670713          	addi	a4,a4,-1994 # 80010c40 <cons>
    80000412:	0a072783          	lw	a5,160(a4)
    80000416:	09c72703          	lw	a4,156(a4)
    8000041a:	f0f701e3          	beq	a4,a5,8000031c <consoleintr+0x3a>
            cons.e--;
    8000041e:	37fd                	addiw	a5,a5,-1
    80000420:	00011717          	auipc	a4,0x11
    80000424:	8cf72023          	sw	a5,-1856(a4) # 80010ce0 <cons+0xa0>
            consputc(BACKSPACE);
    80000428:	10000513          	li	a0,256
    8000042c:	00000097          	auipc	ra,0x0
    80000430:	e74080e7          	jalr	-396(ra) # 800002a0 <consputc>
    80000434:	b5e5                	j	8000031c <consoleintr+0x3a>
        if (c != 0 && cons.e - cons.r < INPUT_BUF_SIZE)
    80000436:	ee0483e3          	beqz	s1,8000031c <consoleintr+0x3a>
    8000043a:	b711                	j	8000033e <consoleintr+0x5c>
            consputc(c);
    8000043c:	4529                	li	a0,10
    8000043e:	00000097          	auipc	ra,0x0
    80000442:	e62080e7          	jalr	-414(ra) # 800002a0 <consputc>
            cons.buf[cons.e++ % INPUT_BUF_SIZE] = c;
    80000446:	00010797          	auipc	a5,0x10
    8000044a:	7fa78793          	addi	a5,a5,2042 # 80010c40 <cons>
    8000044e:	0a07a703          	lw	a4,160(a5)
    80000452:	0017069b          	addiw	a3,a4,1
    80000456:	8636                	mv	a2,a3
    80000458:	0ad7a023          	sw	a3,160(a5)
    8000045c:	07f77713          	andi	a4,a4,127
    80000460:	97ba                	add	a5,a5,a4
    80000462:	4729                	li	a4,10
    80000464:	00e78c23          	sb	a4,24(a5)
                cons.w = cons.e;
    80000468:	00011797          	auipc	a5,0x11
    8000046c:	86c7aa23          	sw	a2,-1932(a5) # 80010cdc <cons+0x9c>
                wakeup(&cons.r);
    80000470:	00011517          	auipc	a0,0x11
    80000474:	86850513          	addi	a0,a0,-1944 # 80010cd8 <cons+0x98>
    80000478:	00002097          	auipc	ra,0x2
    8000047c:	0be080e7          	jalr	190(ra) # 80002536 <wakeup>
    80000480:	bd71                	j	8000031c <consoleintr+0x3a>

0000000080000482 <consoleinit>:

void consoleinit(void)
{
    80000482:	1141                	addi	sp,sp,-16
    80000484:	e406                	sd	ra,8(sp)
    80000486:	e022                	sd	s0,0(sp)
    80000488:	0800                	addi	s0,sp,16
    initlock(&cons.lock, "cons");
    8000048a:	00008597          	auipc	a1,0x8
    8000048e:	b7658593          	addi	a1,a1,-1162 # 80008000 <etext>
    80000492:	00010517          	auipc	a0,0x10
    80000496:	7ae50513          	addi	a0,a0,1966 # 80010c40 <cons>
    8000049a:	00001097          	auipc	ra,0x1
    8000049e:	898080e7          	jalr	-1896(ra) # 80000d32 <initlock>

    uartinit();
    800004a2:	00000097          	auipc	ra,0x0
    800004a6:	356080e7          	jalr	854(ra) # 800007f8 <uartinit>

    // connect read and write system calls
    // to consoleread and consolewrite.
    devsw[CONSOLE].read = consoleread;
    800004aa:	00461797          	auipc	a5,0x461
    800004ae:	92e78793          	addi	a5,a5,-1746 # 80460dd8 <devsw>
    800004b2:	00000717          	auipc	a4,0x0
    800004b6:	cce70713          	addi	a4,a4,-818 # 80000180 <consoleread>
    800004ba:	eb98                	sd	a4,16(a5)
    devsw[CONSOLE].write = consolewrite;
    800004bc:	00000717          	auipc	a4,0x0
    800004c0:	c4670713          	addi	a4,a4,-954 # 80000102 <consolewrite>
    800004c4:	ef98                	sd	a4,24(a5)
}
    800004c6:	60a2                	ld	ra,8(sp)
    800004c8:	6402                	ld	s0,0(sp)
    800004ca:	0141                	addi	sp,sp,16
    800004cc:	8082                	ret

00000000800004ce <printint>:

static char digits[] = "0123456789abcdef";

static void
printint(int xx, int base, int sign)
{
    800004ce:	7179                	addi	sp,sp,-48
    800004d0:	f406                	sd	ra,40(sp)
    800004d2:	f022                	sd	s0,32(sp)
    800004d4:	ec26                	sd	s1,24(sp)
    800004d6:	e84a                	sd	s2,16(sp)
    800004d8:	1800                	addi	s0,sp,48
    char buf[16];
    int i;
    uint x;

    if (sign && (sign = xx < 0))
    800004da:	c219                	beqz	a2,800004e0 <printint+0x12>
    800004dc:	06054e63          	bltz	a0,80000558 <printint+0x8a>
        x = -xx;
    else
        x = xx;
    800004e0:	4e01                	li	t3,0

    i = 0;
    800004e2:	fd040313          	addi	t1,s0,-48
        x = xx;
    800004e6:	869a                	mv	a3,t1
    i = 0;
    800004e8:	4781                	li	a5,0
    do
    {
        buf[i++] = digits[x % base];
    800004ea:	00008817          	auipc	a6,0x8
    800004ee:	40680813          	addi	a6,a6,1030 # 800088f0 <digits>
    800004f2:	88be                	mv	a7,a5
    800004f4:	0017861b          	addiw	a2,a5,1
    800004f8:	87b2                	mv	a5,a2
    800004fa:	02b5773b          	remuw	a4,a0,a1
    800004fe:	1702                	slli	a4,a4,0x20
    80000500:	9301                	srli	a4,a4,0x20
    80000502:	9742                	add	a4,a4,a6
    80000504:	00074703          	lbu	a4,0(a4)
    80000508:	00e68023          	sb	a4,0(a3)
    } while ((x /= base) != 0);
    8000050c:	872a                	mv	a4,a0
    8000050e:	02b5553b          	divuw	a0,a0,a1
    80000512:	0685                	addi	a3,a3,1
    80000514:	fcb77fe3          	bgeu	a4,a1,800004f2 <printint+0x24>

    if (sign)
    80000518:	000e0c63          	beqz	t3,80000530 <printint+0x62>
        buf[i++] = '-';
    8000051c:	fe060793          	addi	a5,a2,-32
    80000520:	00878633          	add	a2,a5,s0
    80000524:	02d00793          	li	a5,45
    80000528:	fef60823          	sb	a5,-16(a2)
    8000052c:	0028879b          	addiw	a5,a7,2

    while (--i >= 0)
    80000530:	fff7891b          	addiw	s2,a5,-1
    80000534:	006784b3          	add	s1,a5,t1
        consputc(buf[i]);
    80000538:	fff4c503          	lbu	a0,-1(s1)
    8000053c:	00000097          	auipc	ra,0x0
    80000540:	d64080e7          	jalr	-668(ra) # 800002a0 <consputc>
    while (--i >= 0)
    80000544:	397d                	addiw	s2,s2,-1
    80000546:	14fd                	addi	s1,s1,-1
    80000548:	fe0958e3          	bgez	s2,80000538 <printint+0x6a>
}
    8000054c:	70a2                	ld	ra,40(sp)
    8000054e:	7402                	ld	s0,32(sp)
    80000550:	64e2                	ld	s1,24(sp)
    80000552:	6942                	ld	s2,16(sp)
    80000554:	6145                	addi	sp,sp,48
    80000556:	8082                	ret
        x = -xx;
    80000558:	40a0053b          	negw	a0,a0
    if (sign && (sign = xx < 0))
    8000055c:	4e05                	li	t3,1
        x = -xx;
    8000055e:	b751                	j	800004e2 <printint+0x14>

0000000080000560 <panic>:
    if (locking)
        release(&pr.lock);
}

void panic(char *s, ...)
{
    80000560:	711d                	addi	sp,sp,-96
    80000562:	ec06                	sd	ra,24(sp)
    80000564:	e822                	sd	s0,16(sp)
    80000566:	e426                	sd	s1,8(sp)
    80000568:	1000                	addi	s0,sp,32
    8000056a:	84aa                	mv	s1,a0
    8000056c:	e40c                	sd	a1,8(s0)
    8000056e:	e810                	sd	a2,16(s0)
    80000570:	ec14                	sd	a3,24(s0)
    80000572:	f018                	sd	a4,32(s0)
    80000574:	f41c                	sd	a5,40(s0)
    80000576:	03043823          	sd	a6,48(s0)
    8000057a:	03143c23          	sd	a7,56(s0)
    pr.locking = 0;
    8000057e:	00010797          	auipc	a5,0x10
    80000582:	7807a123          	sw	zero,1922(a5) # 80010d00 <pr+0x18>
    printf("panic: ");
    80000586:	00008517          	auipc	a0,0x8
    8000058a:	a8250513          	addi	a0,a0,-1406 # 80008008 <etext+0x8>
    8000058e:	00000097          	auipc	ra,0x0
    80000592:	02e080e7          	jalr	46(ra) # 800005bc <printf>
    printf(s);
    80000596:	8526                	mv	a0,s1
    80000598:	00000097          	auipc	ra,0x0
    8000059c:	024080e7          	jalr	36(ra) # 800005bc <printf>
    printf("\n");
    800005a0:	00008517          	auipc	a0,0x8
    800005a4:	a7050513          	addi	a0,a0,-1424 # 80008010 <etext+0x10>
    800005a8:	00000097          	auipc	ra,0x0
    800005ac:	014080e7          	jalr	20(ra) # 800005bc <printf>
    panicked = 1; // freeze uart output from other CPUs
    800005b0:	4785                	li	a5,1
    800005b2:	00008717          	auipc	a4,0x8
    800005b6:	4ef72f23          	sw	a5,1278(a4) # 80008ab0 <panicked>
    for (;;)
    800005ba:	a001                	j	800005ba <panic+0x5a>

00000000800005bc <printf>:
{
    800005bc:	7131                	addi	sp,sp,-192
    800005be:	fc86                	sd	ra,120(sp)
    800005c0:	f8a2                	sd	s0,112(sp)
    800005c2:	e8d2                	sd	s4,80(sp)
    800005c4:	ec6e                	sd	s11,24(sp)
    800005c6:	0100                	addi	s0,sp,128
    800005c8:	8a2a                	mv	s4,a0
    800005ca:	e40c                	sd	a1,8(s0)
    800005cc:	e810                	sd	a2,16(s0)
    800005ce:	ec14                	sd	a3,24(s0)
    800005d0:	f018                	sd	a4,32(s0)
    800005d2:	f41c                	sd	a5,40(s0)
    800005d4:	03043823          	sd	a6,48(s0)
    800005d8:	03143c23          	sd	a7,56(s0)
    locking = pr.locking;
    800005dc:	00010d97          	auipc	s11,0x10
    800005e0:	724dad83          	lw	s11,1828(s11) # 80010d00 <pr+0x18>
    if (locking)
    800005e4:	040d9463          	bnez	s11,8000062c <printf+0x70>
    if (fmt == 0)
    800005e8:	040a0b63          	beqz	s4,8000063e <printf+0x82>
    va_start(ap, fmt);
    800005ec:	00840793          	addi	a5,s0,8
    800005f0:	f8f43423          	sd	a5,-120(s0)
    for (i = 0; (c = fmt[i] & 0xff) != 0; i++)
    800005f4:	000a4503          	lbu	a0,0(s4)
    800005f8:	18050c63          	beqz	a0,80000790 <printf+0x1d4>
    800005fc:	f4a6                	sd	s1,104(sp)
    800005fe:	f0ca                	sd	s2,96(sp)
    80000600:	ecce                	sd	s3,88(sp)
    80000602:	e4d6                	sd	s5,72(sp)
    80000604:	e0da                	sd	s6,64(sp)
    80000606:	fc5e                	sd	s7,56(sp)
    80000608:	f862                	sd	s8,48(sp)
    8000060a:	f466                	sd	s9,40(sp)
    8000060c:	f06a                	sd	s10,32(sp)
    8000060e:	4981                	li	s3,0
        if (c != '%')
    80000610:	02500b13          	li	s6,37
        switch (c)
    80000614:	07000b93          	li	s7,112
    consputc('x');
    80000618:	07800c93          	li	s9,120
    8000061c:	4d41                	li	s10,16
        consputc(digits[x >> (sizeof(uint64) * 8 - 4)]);
    8000061e:	00008a97          	auipc	s5,0x8
    80000622:	2d2a8a93          	addi	s5,s5,722 # 800088f0 <digits>
        switch (c)
    80000626:	07300c13          	li	s8,115
    8000062a:	a0b9                	j	80000678 <printf+0xbc>
        acquire(&pr.lock);
    8000062c:	00010517          	auipc	a0,0x10
    80000630:	6bc50513          	addi	a0,a0,1724 # 80010ce8 <pr>
    80000634:	00000097          	auipc	ra,0x0
    80000638:	792080e7          	jalr	1938(ra) # 80000dc6 <acquire>
    8000063c:	b775                	j	800005e8 <printf+0x2c>
    8000063e:	f4a6                	sd	s1,104(sp)
    80000640:	f0ca                	sd	s2,96(sp)
    80000642:	ecce                	sd	s3,88(sp)
    80000644:	e4d6                	sd	s5,72(sp)
    80000646:	e0da                	sd	s6,64(sp)
    80000648:	fc5e                	sd	s7,56(sp)
    8000064a:	f862                	sd	s8,48(sp)
    8000064c:	f466                	sd	s9,40(sp)
    8000064e:	f06a                	sd	s10,32(sp)
        panic("null fmt");
    80000650:	00008517          	auipc	a0,0x8
    80000654:	9d050513          	addi	a0,a0,-1584 # 80008020 <etext+0x20>
    80000658:	00000097          	auipc	ra,0x0
    8000065c:	f08080e7          	jalr	-248(ra) # 80000560 <panic>
            consputc(c);
    80000660:	00000097          	auipc	ra,0x0
    80000664:	c40080e7          	jalr	-960(ra) # 800002a0 <consputc>
    for (i = 0; (c = fmt[i] & 0xff) != 0; i++)
    80000668:	0019879b          	addiw	a5,s3,1
    8000066c:	89be                	mv	s3,a5
    8000066e:	97d2                	add	a5,a5,s4
    80000670:	0007c503          	lbu	a0,0(a5)
    80000674:	10050563          	beqz	a0,8000077e <printf+0x1c2>
        if (c != '%')
    80000678:	ff6514e3          	bne	a0,s6,80000660 <printf+0xa4>
        c = fmt[++i] & 0xff;
    8000067c:	0019879b          	addiw	a5,s3,1
    80000680:	89be                	mv	s3,a5
    80000682:	97d2                	add	a5,a5,s4
    80000684:	0007c783          	lbu	a5,0(a5)
    80000688:	0007849b          	sext.w	s1,a5
        if (c == 0)
    8000068c:	10078a63          	beqz	a5,800007a0 <printf+0x1e4>
        switch (c)
    80000690:	05778a63          	beq	a5,s7,800006e4 <printf+0x128>
    80000694:	02fbf463          	bgeu	s7,a5,800006bc <printf+0x100>
    80000698:	09878763          	beq	a5,s8,80000726 <printf+0x16a>
    8000069c:	0d979663          	bne	a5,s9,80000768 <printf+0x1ac>
            printint(va_arg(ap, int), 16, 1);
    800006a0:	f8843783          	ld	a5,-120(s0)
    800006a4:	00878713          	addi	a4,a5,8
    800006a8:	f8e43423          	sd	a4,-120(s0)
    800006ac:	4605                	li	a2,1
    800006ae:	85ea                	mv	a1,s10
    800006b0:	4388                	lw	a0,0(a5)
    800006b2:	00000097          	auipc	ra,0x0
    800006b6:	e1c080e7          	jalr	-484(ra) # 800004ce <printint>
            break;
    800006ba:	b77d                	j	80000668 <printf+0xac>
        switch (c)
    800006bc:	0b678063          	beq	a5,s6,8000075c <printf+0x1a0>
    800006c0:	06400713          	li	a4,100
    800006c4:	0ae79263          	bne	a5,a4,80000768 <printf+0x1ac>
            printint(va_arg(ap, int), 10, 1);
    800006c8:	f8843783          	ld	a5,-120(s0)
    800006cc:	00878713          	addi	a4,a5,8
    800006d0:	f8e43423          	sd	a4,-120(s0)
    800006d4:	4605                	li	a2,1
    800006d6:	45a9                	li	a1,10
    800006d8:	4388                	lw	a0,0(a5)
    800006da:	00000097          	auipc	ra,0x0
    800006de:	df4080e7          	jalr	-524(ra) # 800004ce <printint>
            break;
    800006e2:	b759                	j	80000668 <printf+0xac>
            printptr(va_arg(ap, uint64));
    800006e4:	f8843783          	ld	a5,-120(s0)
    800006e8:	00878713          	addi	a4,a5,8
    800006ec:	f8e43423          	sd	a4,-120(s0)
    800006f0:	0007b903          	ld	s2,0(a5)
    consputc('0');
    800006f4:	03000513          	li	a0,48
    800006f8:	00000097          	auipc	ra,0x0
    800006fc:	ba8080e7          	jalr	-1112(ra) # 800002a0 <consputc>
    consputc('x');
    80000700:	8566                	mv	a0,s9
    80000702:	00000097          	auipc	ra,0x0
    80000706:	b9e080e7          	jalr	-1122(ra) # 800002a0 <consputc>
    8000070a:	84ea                	mv	s1,s10
        consputc(digits[x >> (sizeof(uint64) * 8 - 4)]);
    8000070c:	03c95793          	srli	a5,s2,0x3c
    80000710:	97d6                	add	a5,a5,s5
    80000712:	0007c503          	lbu	a0,0(a5)
    80000716:	00000097          	auipc	ra,0x0
    8000071a:	b8a080e7          	jalr	-1142(ra) # 800002a0 <consputc>
    for (i = 0; i < (sizeof(uint64) * 2); i++, x <<= 4)
    8000071e:	0912                	slli	s2,s2,0x4
    80000720:	34fd                	addiw	s1,s1,-1
    80000722:	f4ed                	bnez	s1,8000070c <printf+0x150>
    80000724:	b791                	j	80000668 <printf+0xac>
            if ((s = va_arg(ap, char *)) == 0)
    80000726:	f8843783          	ld	a5,-120(s0)
    8000072a:	00878713          	addi	a4,a5,8
    8000072e:	f8e43423          	sd	a4,-120(s0)
    80000732:	6384                	ld	s1,0(a5)
    80000734:	cc89                	beqz	s1,8000074e <printf+0x192>
            for (; *s; s++)
    80000736:	0004c503          	lbu	a0,0(s1)
    8000073a:	d51d                	beqz	a0,80000668 <printf+0xac>
                consputc(*s);
    8000073c:	00000097          	auipc	ra,0x0
    80000740:	b64080e7          	jalr	-1180(ra) # 800002a0 <consputc>
            for (; *s; s++)
    80000744:	0485                	addi	s1,s1,1
    80000746:	0004c503          	lbu	a0,0(s1)
    8000074a:	f96d                	bnez	a0,8000073c <printf+0x180>
    8000074c:	bf31                	j	80000668 <printf+0xac>
                s = "(null)";
    8000074e:	00008497          	auipc	s1,0x8
    80000752:	8ca48493          	addi	s1,s1,-1846 # 80008018 <etext+0x18>
            for (; *s; s++)
    80000756:	02800513          	li	a0,40
    8000075a:	b7cd                	j	8000073c <printf+0x180>
            consputc('%');
    8000075c:	855a                	mv	a0,s6
    8000075e:	00000097          	auipc	ra,0x0
    80000762:	b42080e7          	jalr	-1214(ra) # 800002a0 <consputc>
            break;
    80000766:	b709                	j	80000668 <printf+0xac>
            consputc('%');
    80000768:	855a                	mv	a0,s6
    8000076a:	00000097          	auipc	ra,0x0
    8000076e:	b36080e7          	jalr	-1226(ra) # 800002a0 <consputc>
            consputc(c);
    80000772:	8526                	mv	a0,s1
    80000774:	00000097          	auipc	ra,0x0
    80000778:	b2c080e7          	jalr	-1236(ra) # 800002a0 <consputc>
            break;
    8000077c:	b5f5                	j	80000668 <printf+0xac>
    8000077e:	74a6                	ld	s1,104(sp)
    80000780:	7906                	ld	s2,96(sp)
    80000782:	69e6                	ld	s3,88(sp)
    80000784:	6aa6                	ld	s5,72(sp)
    80000786:	6b06                	ld	s6,64(sp)
    80000788:	7be2                	ld	s7,56(sp)
    8000078a:	7c42                	ld	s8,48(sp)
    8000078c:	7ca2                	ld	s9,40(sp)
    8000078e:	7d02                	ld	s10,32(sp)
    if (locking)
    80000790:	020d9263          	bnez	s11,800007b4 <printf+0x1f8>
}
    80000794:	70e6                	ld	ra,120(sp)
    80000796:	7446                	ld	s0,112(sp)
    80000798:	6a46                	ld	s4,80(sp)
    8000079a:	6de2                	ld	s11,24(sp)
    8000079c:	6129                	addi	sp,sp,192
    8000079e:	8082                	ret
    800007a0:	74a6                	ld	s1,104(sp)
    800007a2:	7906                	ld	s2,96(sp)
    800007a4:	69e6                	ld	s3,88(sp)
    800007a6:	6aa6                	ld	s5,72(sp)
    800007a8:	6b06                	ld	s6,64(sp)
    800007aa:	7be2                	ld	s7,56(sp)
    800007ac:	7c42                	ld	s8,48(sp)
    800007ae:	7ca2                	ld	s9,40(sp)
    800007b0:	7d02                	ld	s10,32(sp)
    800007b2:	bff9                	j	80000790 <printf+0x1d4>
        release(&pr.lock);
    800007b4:	00010517          	auipc	a0,0x10
    800007b8:	53450513          	addi	a0,a0,1332 # 80010ce8 <pr>
    800007bc:	00000097          	auipc	ra,0x0
    800007c0:	6ba080e7          	jalr	1722(ra) # 80000e76 <release>
}
    800007c4:	bfc1                	j	80000794 <printf+0x1d8>

00000000800007c6 <printfinit>:
        ;
}

void printfinit(void)
{
    800007c6:	1101                	addi	sp,sp,-32
    800007c8:	ec06                	sd	ra,24(sp)
    800007ca:	e822                	sd	s0,16(sp)
    800007cc:	e426                	sd	s1,8(sp)
    800007ce:	1000                	addi	s0,sp,32
    initlock(&pr.lock, "pr");
    800007d0:	00010497          	auipc	s1,0x10
    800007d4:	51848493          	addi	s1,s1,1304 # 80010ce8 <pr>
    800007d8:	00008597          	auipc	a1,0x8
    800007dc:	85858593          	addi	a1,a1,-1960 # 80008030 <etext+0x30>
    800007e0:	8526                	mv	a0,s1
    800007e2:	00000097          	auipc	ra,0x0
    800007e6:	550080e7          	jalr	1360(ra) # 80000d32 <initlock>
    pr.locking = 1;
    800007ea:	4785                	li	a5,1
    800007ec:	cc9c                	sw	a5,24(s1)
}
    800007ee:	60e2                	ld	ra,24(sp)
    800007f0:	6442                	ld	s0,16(sp)
    800007f2:	64a2                	ld	s1,8(sp)
    800007f4:	6105                	addi	sp,sp,32
    800007f6:	8082                	ret

00000000800007f8 <uartinit>:

void uartstart();

void
uartinit(void)
{
    800007f8:	1141                	addi	sp,sp,-16
    800007fa:	e406                	sd	ra,8(sp)
    800007fc:	e022                	sd	s0,0(sp)
    800007fe:	0800                	addi	s0,sp,16
  // disable interrupts.
  WriteReg(IER, 0x00);
    80000800:	100007b7          	lui	a5,0x10000
    80000804:	000780a3          	sb	zero,1(a5) # 10000001 <_entry-0x6fffffff>

  // special mode to set baud rate.
  WriteReg(LCR, LCR_BAUD_LATCH);
    80000808:	10000737          	lui	a4,0x10000
    8000080c:	f8000693          	li	a3,-128
    80000810:	00d701a3          	sb	a3,3(a4) # 10000003 <_entry-0x6ffffffd>

  // LSB for baud rate of 38.4K.
  WriteReg(0, 0x03);
    80000814:	468d                	li	a3,3
    80000816:	10000637          	lui	a2,0x10000
    8000081a:	00d60023          	sb	a3,0(a2) # 10000000 <_entry-0x70000000>

  // MSB for baud rate of 38.4K.
  WriteReg(1, 0x00);
    8000081e:	000780a3          	sb	zero,1(a5)

  // leave set-baud mode,
  // and set word length to 8 bits, no parity.
  WriteReg(LCR, LCR_EIGHT_BITS);
    80000822:	00d701a3          	sb	a3,3(a4)

  // reset and enable FIFOs.
  WriteReg(FCR, FCR_FIFO_ENABLE | FCR_FIFO_CLEAR);
    80000826:	8732                	mv	a4,a2
    80000828:	461d                	li	a2,7
    8000082a:	00c70123          	sb	a2,2(a4)

  // enable transmit and receive interrupts.
  WriteReg(IER, IER_TX_ENABLE | IER_RX_ENABLE);
    8000082e:	00d780a3          	sb	a3,1(a5)

  initlock(&uart_tx_lock, "uart");
    80000832:	00008597          	auipc	a1,0x8
    80000836:	80658593          	addi	a1,a1,-2042 # 80008038 <etext+0x38>
    8000083a:	00010517          	auipc	a0,0x10
    8000083e:	4ce50513          	addi	a0,a0,1230 # 80010d08 <uart_tx_lock>
    80000842:	00000097          	auipc	ra,0x0
    80000846:	4f0080e7          	jalr	1264(ra) # 80000d32 <initlock>
}
    8000084a:	60a2                	ld	ra,8(sp)
    8000084c:	6402                	ld	s0,0(sp)
    8000084e:	0141                	addi	sp,sp,16
    80000850:	8082                	ret

0000000080000852 <uartputc_sync>:
// use interrupts, for use by kernel printf() and
// to echo characters. it spins waiting for the uart's
// output register to be empty.
void
uartputc_sync(int c)
{
    80000852:	1101                	addi	sp,sp,-32
    80000854:	ec06                	sd	ra,24(sp)
    80000856:	e822                	sd	s0,16(sp)
    80000858:	e426                	sd	s1,8(sp)
    8000085a:	1000                	addi	s0,sp,32
    8000085c:	84aa                	mv	s1,a0
  push_off();
    8000085e:	00000097          	auipc	ra,0x0
    80000862:	51c080e7          	jalr	1308(ra) # 80000d7a <push_off>

  if(panicked){
    80000866:	00008797          	auipc	a5,0x8
    8000086a:	24a7a783          	lw	a5,586(a5) # 80008ab0 <panicked>
    8000086e:	eb85                	bnez	a5,8000089e <uartputc_sync+0x4c>
    for(;;)
      ;
  }

  // wait for Transmit Holding Empty to be set in LSR.
  while((ReadReg(LSR) & LSR_TX_IDLE) == 0)
    80000870:	10000737          	lui	a4,0x10000
    80000874:	0715                	addi	a4,a4,5 # 10000005 <_entry-0x6ffffffb>
    80000876:	00074783          	lbu	a5,0(a4)
    8000087a:	0207f793          	andi	a5,a5,32
    8000087e:	dfe5                	beqz	a5,80000876 <uartputc_sync+0x24>
    ;
  WriteReg(THR, c);
    80000880:	0ff4f513          	zext.b	a0,s1
    80000884:	100007b7          	lui	a5,0x10000
    80000888:	00a78023          	sb	a0,0(a5) # 10000000 <_entry-0x70000000>

  pop_off();
    8000088c:	00000097          	auipc	ra,0x0
    80000890:	58e080e7          	jalr	1422(ra) # 80000e1a <pop_off>
}
    80000894:	60e2                	ld	ra,24(sp)
    80000896:	6442                	ld	s0,16(sp)
    80000898:	64a2                	ld	s1,8(sp)
    8000089a:	6105                	addi	sp,sp,32
    8000089c:	8082                	ret
    for(;;)
    8000089e:	a001                	j	8000089e <uartputc_sync+0x4c>

00000000800008a0 <uartstart>:
// called from both the top- and bottom-half.
void
uartstart()
{
  while(1){
    if(uart_tx_w == uart_tx_r){
    800008a0:	00008797          	auipc	a5,0x8
    800008a4:	2187b783          	ld	a5,536(a5) # 80008ab8 <uart_tx_r>
    800008a8:	00008717          	auipc	a4,0x8
    800008ac:	21873703          	ld	a4,536(a4) # 80008ac0 <uart_tx_w>
    800008b0:	06f70f63          	beq	a4,a5,8000092e <uartstart+0x8e>
{
    800008b4:	7139                	addi	sp,sp,-64
    800008b6:	fc06                	sd	ra,56(sp)
    800008b8:	f822                	sd	s0,48(sp)
    800008ba:	f426                	sd	s1,40(sp)
    800008bc:	f04a                	sd	s2,32(sp)
    800008be:	ec4e                	sd	s3,24(sp)
    800008c0:	e852                	sd	s4,16(sp)
    800008c2:	e456                	sd	s5,8(sp)
    800008c4:	e05a                	sd	s6,0(sp)
    800008c6:	0080                	addi	s0,sp,64
      // transmit buffer is empty.
      return;
    }
    
    if((ReadReg(LSR) & LSR_TX_IDLE) == 0){
    800008c8:	10000937          	lui	s2,0x10000
    800008cc:	0915                	addi	s2,s2,5 # 10000005 <_entry-0x6ffffffb>
      // so we cannot give it another byte.
      // it will interrupt when it's ready for a new byte.
      return;
    }
    
    int c = uart_tx_buf[uart_tx_r % UART_TX_BUF_SIZE];
    800008ce:	00010a97          	auipc	s5,0x10
    800008d2:	43aa8a93          	addi	s5,s5,1082 # 80010d08 <uart_tx_lock>
    uart_tx_r += 1;
    800008d6:	00008497          	auipc	s1,0x8
    800008da:	1e248493          	addi	s1,s1,482 # 80008ab8 <uart_tx_r>
    
    // maybe uartputc() is waiting for space in the buffer.
    wakeup(&uart_tx_r);
    
    WriteReg(THR, c);
    800008de:	10000a37          	lui	s4,0x10000
    if(uart_tx_w == uart_tx_r){
    800008e2:	00008997          	auipc	s3,0x8
    800008e6:	1de98993          	addi	s3,s3,478 # 80008ac0 <uart_tx_w>
    if((ReadReg(LSR) & LSR_TX_IDLE) == 0){
    800008ea:	00094703          	lbu	a4,0(s2)
    800008ee:	02077713          	andi	a4,a4,32
    800008f2:	c705                	beqz	a4,8000091a <uartstart+0x7a>
    int c = uart_tx_buf[uart_tx_r % UART_TX_BUF_SIZE];
    800008f4:	01f7f713          	andi	a4,a5,31
    800008f8:	9756                	add	a4,a4,s5
    800008fa:	01874b03          	lbu	s6,24(a4)
    uart_tx_r += 1;
    800008fe:	0785                	addi	a5,a5,1
    80000900:	e09c                	sd	a5,0(s1)
    wakeup(&uart_tx_r);
    80000902:	8526                	mv	a0,s1
    80000904:	00002097          	auipc	ra,0x2
    80000908:	c32080e7          	jalr	-974(ra) # 80002536 <wakeup>
    WriteReg(THR, c);
    8000090c:	016a0023          	sb	s6,0(s4) # 10000000 <_entry-0x70000000>
    if(uart_tx_w == uart_tx_r){
    80000910:	609c                	ld	a5,0(s1)
    80000912:	0009b703          	ld	a4,0(s3)
    80000916:	fcf71ae3          	bne	a4,a5,800008ea <uartstart+0x4a>
  }
}
    8000091a:	70e2                	ld	ra,56(sp)
    8000091c:	7442                	ld	s0,48(sp)
    8000091e:	74a2                	ld	s1,40(sp)
    80000920:	7902                	ld	s2,32(sp)
    80000922:	69e2                	ld	s3,24(sp)
    80000924:	6a42                	ld	s4,16(sp)
    80000926:	6aa2                	ld	s5,8(sp)
    80000928:	6b02                	ld	s6,0(sp)
    8000092a:	6121                	addi	sp,sp,64
    8000092c:	8082                	ret
    8000092e:	8082                	ret

0000000080000930 <uartputc>:
{
    80000930:	7179                	addi	sp,sp,-48
    80000932:	f406                	sd	ra,40(sp)
    80000934:	f022                	sd	s0,32(sp)
    80000936:	ec26                	sd	s1,24(sp)
    80000938:	e84a                	sd	s2,16(sp)
    8000093a:	e44e                	sd	s3,8(sp)
    8000093c:	e052                	sd	s4,0(sp)
    8000093e:	1800                	addi	s0,sp,48
    80000940:	8a2a                	mv	s4,a0
  acquire(&uart_tx_lock);
    80000942:	00010517          	auipc	a0,0x10
    80000946:	3c650513          	addi	a0,a0,966 # 80010d08 <uart_tx_lock>
    8000094a:	00000097          	auipc	ra,0x0
    8000094e:	47c080e7          	jalr	1148(ra) # 80000dc6 <acquire>
  if(panicked){
    80000952:	00008797          	auipc	a5,0x8
    80000956:	15e7a783          	lw	a5,350(a5) # 80008ab0 <panicked>
    8000095a:	e7c9                	bnez	a5,800009e4 <uartputc+0xb4>
  while(uart_tx_w == uart_tx_r + UART_TX_BUF_SIZE){
    8000095c:	00008717          	auipc	a4,0x8
    80000960:	16473703          	ld	a4,356(a4) # 80008ac0 <uart_tx_w>
    80000964:	00008797          	auipc	a5,0x8
    80000968:	1547b783          	ld	a5,340(a5) # 80008ab8 <uart_tx_r>
    8000096c:	02078793          	addi	a5,a5,32
    sleep(&uart_tx_r, &uart_tx_lock);
    80000970:	00010997          	auipc	s3,0x10
    80000974:	39898993          	addi	s3,s3,920 # 80010d08 <uart_tx_lock>
    80000978:	00008497          	auipc	s1,0x8
    8000097c:	14048493          	addi	s1,s1,320 # 80008ab8 <uart_tx_r>
  while(uart_tx_w == uart_tx_r + UART_TX_BUF_SIZE){
    80000980:	00008917          	auipc	s2,0x8
    80000984:	14090913          	addi	s2,s2,320 # 80008ac0 <uart_tx_w>
    80000988:	00e79f63          	bne	a5,a4,800009a6 <uartputc+0x76>
    sleep(&uart_tx_r, &uart_tx_lock);
    8000098c:	85ce                	mv	a1,s3
    8000098e:	8526                	mv	a0,s1
    80000990:	00002097          	auipc	ra,0x2
    80000994:	b42080e7          	jalr	-1214(ra) # 800024d2 <sleep>
  while(uart_tx_w == uart_tx_r + UART_TX_BUF_SIZE){
    80000998:	00093703          	ld	a4,0(s2)
    8000099c:	609c                	ld	a5,0(s1)
    8000099e:	02078793          	addi	a5,a5,32
    800009a2:	fee785e3          	beq	a5,a4,8000098c <uartputc+0x5c>
  uart_tx_buf[uart_tx_w % UART_TX_BUF_SIZE] = c;
    800009a6:	00010497          	auipc	s1,0x10
    800009aa:	36248493          	addi	s1,s1,866 # 80010d08 <uart_tx_lock>
    800009ae:	01f77793          	andi	a5,a4,31
    800009b2:	97a6                	add	a5,a5,s1
    800009b4:	01478c23          	sb	s4,24(a5)
  uart_tx_w += 1;
    800009b8:	0705                	addi	a4,a4,1
    800009ba:	00008797          	auipc	a5,0x8
    800009be:	10e7b323          	sd	a4,262(a5) # 80008ac0 <uart_tx_w>
  uartstart();
    800009c2:	00000097          	auipc	ra,0x0
    800009c6:	ede080e7          	jalr	-290(ra) # 800008a0 <uartstart>
  release(&uart_tx_lock);
    800009ca:	8526                	mv	a0,s1
    800009cc:	00000097          	auipc	ra,0x0
    800009d0:	4aa080e7          	jalr	1194(ra) # 80000e76 <release>
}
    800009d4:	70a2                	ld	ra,40(sp)
    800009d6:	7402                	ld	s0,32(sp)
    800009d8:	64e2                	ld	s1,24(sp)
    800009da:	6942                	ld	s2,16(sp)
    800009dc:	69a2                	ld	s3,8(sp)
    800009de:	6a02                	ld	s4,0(sp)
    800009e0:	6145                	addi	sp,sp,48
    800009e2:	8082                	ret
    for(;;)
    800009e4:	a001                	j	800009e4 <uartputc+0xb4>

00000000800009e6 <uartgetc>:

// read one input character from the UART.
// return -1 if none is waiting.
int
uartgetc(void)
{
    800009e6:	1141                	addi	sp,sp,-16
    800009e8:	e406                	sd	ra,8(sp)
    800009ea:	e022                	sd	s0,0(sp)
    800009ec:	0800                	addi	s0,sp,16
  if(ReadReg(LSR) & 0x01){
    800009ee:	100007b7          	lui	a5,0x10000
    800009f2:	0057c783          	lbu	a5,5(a5) # 10000005 <_entry-0x6ffffffb>
    800009f6:	8b85                	andi	a5,a5,1
    800009f8:	cb89                	beqz	a5,80000a0a <uartgetc+0x24>
    // input data is ready.
    return ReadReg(RHR);
    800009fa:	100007b7          	lui	a5,0x10000
    800009fe:	0007c503          	lbu	a0,0(a5) # 10000000 <_entry-0x70000000>
  } else {
    return -1;
  }
}
    80000a02:	60a2                	ld	ra,8(sp)
    80000a04:	6402                	ld	s0,0(sp)
    80000a06:	0141                	addi	sp,sp,16
    80000a08:	8082                	ret
    return -1;
    80000a0a:	557d                	li	a0,-1
    80000a0c:	bfdd                	j	80000a02 <uartgetc+0x1c>

0000000080000a0e <uartintr>:
// handle a uart interrupt, raised because input has
// arrived, or the uart is ready for more output, or
// both. called from devintr().
void
uartintr(void)
{
    80000a0e:	1101                	addi	sp,sp,-32
    80000a10:	ec06                	sd	ra,24(sp)
    80000a12:	e822                	sd	s0,16(sp)
    80000a14:	e426                	sd	s1,8(sp)
    80000a16:	1000                	addi	s0,sp,32
  // read and process incoming characters.
  while(1){
    int c = uartgetc();
    if(c == -1)
    80000a18:	54fd                	li	s1,-1
    int c = uartgetc();
    80000a1a:	00000097          	auipc	ra,0x0
    80000a1e:	fcc080e7          	jalr	-52(ra) # 800009e6 <uartgetc>
    if(c == -1)
    80000a22:	00950763          	beq	a0,s1,80000a30 <uartintr+0x22>
      break;
    consoleintr(c);
    80000a26:	00000097          	auipc	ra,0x0
    80000a2a:	8bc080e7          	jalr	-1860(ra) # 800002e2 <consoleintr>
  while(1){
    80000a2e:	b7f5                	j	80000a1a <uartintr+0xc>
  }

  // send buffered characters.
  acquire(&uart_tx_lock);
    80000a30:	00010497          	auipc	s1,0x10
    80000a34:	2d848493          	addi	s1,s1,728 # 80010d08 <uart_tx_lock>
    80000a38:	8526                	mv	a0,s1
    80000a3a:	00000097          	auipc	ra,0x0
    80000a3e:	38c080e7          	jalr	908(ra) # 80000dc6 <acquire>
  uartstart();
    80000a42:	00000097          	auipc	ra,0x0
    80000a46:	e5e080e7          	jalr	-418(ra) # 800008a0 <uartstart>
  release(&uart_tx_lock);
    80000a4a:	8526                	mv	a0,s1
    80000a4c:	00000097          	auipc	ra,0x0
    80000a50:	42a080e7          	jalr	1066(ra) # 80000e76 <release>
}
    80000a54:	60e2                	ld	ra,24(sp)
    80000a56:	6442                	ld	s0,16(sp)
    80000a58:	64a2                	ld	s1,8(sp)
    80000a5a:	6105                	addi	sp,sp,32
    80000a5c:	8082                	ret

0000000080000a5e <kfree>:
// which normally should have been returned by a
// call to kalloc().  (The exception is when
// initializing the allocator; see kinit above.)
void
kfree(void *pa)
{
    80000a5e:	1101                	addi	sp,sp,-32
    80000a60:	ec06                	sd	ra,24(sp)
    80000a62:	e822                	sd	s0,16(sp)
    80000a64:	e426                	sd	s1,8(sp)
    80000a66:	1000                	addi	s0,sp,32
    struct run *r;

    if(((uint64)pa % PGSIZE) != 0 || (char*)pa < end || (uint64)pa >= PHYSTOP)
    80000a68:	03451793          	slli	a5,a0,0x34
    80000a6c:	ebc1                	bnez	a5,80000afc <kfree+0x9e>
    80000a6e:	84aa                	mv	s1,a0
    80000a70:	00461797          	auipc	a5,0x461
    80000a74:	50078793          	addi	a5,a5,1280 # 80461f70 <end>
    80000a78:	08f56263          	bltu	a0,a5,80000afc <kfree+0x9e>
    80000a7c:	47c5                	li	a5,17
    80000a7e:	07ee                	slli	a5,a5,0x1b
    80000a80:	06f57e63          	bgeu	a0,a5,80000afc <kfree+0x9e>
      panic("kfree");

    acquire(&kmem.lock);
    80000a84:	00010517          	auipc	a0,0x10
    80000a88:	2bc50513          	addi	a0,a0,700 # 80010d40 <kmem>
    80000a8c:	00000097          	auipc	ra,0x0
    80000a90:	33a080e7          	jalr	826(ra) # 80000dc6 <acquire>
    if(kmem.ref[(uint64)pa/PGSIZE] <= 0)
    80000a94:	00c4d793          	srli	a5,s1,0xc
    80000a98:	00478693          	addi	a3,a5,4
    80000a9c:	068e                	slli	a3,a3,0x3
    80000a9e:	00010717          	auipc	a4,0x10
    80000aa2:	2a270713          	addi	a4,a4,674 # 80010d40 <kmem>
    80000aa6:	9736                	add	a4,a4,a3
    80000aa8:	6318                	ld	a4,0(a4)
    80000aaa:	c32d                	beqz	a4,80000b0c <kfree+0xae>
      panic("kfree: negative reference count");
    if(--kmem.ref[(uint64)pa/PGSIZE] > 0) {
    80000aac:	177d                	addi	a4,a4,-1
    80000aae:	0791                	addi	a5,a5,4
    80000ab0:	078e                	slli	a5,a5,0x3
    80000ab2:	00010697          	auipc	a3,0x10
    80000ab6:	28e68693          	addi	a3,a3,654 # 80010d40 <kmem>
    80000aba:	97b6                	add	a5,a5,a3
    80000abc:	e398                	sd	a4,0(a5)
    80000abe:	ef39                	bnez	a4,80000b1c <kfree+0xbe>
      release(&kmem.lock);
      return;
    }
    memset(pa, 1, PGSIZE);
    80000ac0:	6605                	lui	a2,0x1
    80000ac2:	4585                	li	a1,1
    80000ac4:	8526                	mv	a0,s1
    80000ac6:	00000097          	auipc	ra,0x0
    80000aca:	3f8080e7          	jalr	1016(ra) # 80000ebe <memset>

    r = (struct run*)pa;
    r->next = kmem.freelist;
    80000ace:	00010517          	auipc	a0,0x10
    80000ad2:	27250513          	addi	a0,a0,626 # 80010d40 <kmem>
    80000ad6:	6d1c                	ld	a5,24(a0)
    80000ad8:	e09c                	sd	a5,0(s1)
    kmem.freelist = r;
    80000ada:	ed04                	sd	s1,24(a0)
    FREE_PAGES++;
    80000adc:	00008717          	auipc	a4,0x8
    80000ae0:	fec70713          	addi	a4,a4,-20 # 80008ac8 <FREE_PAGES>
    80000ae4:	631c                	ld	a5,0(a4)
    80000ae6:	0785                	addi	a5,a5,1
    80000ae8:	e31c                	sd	a5,0(a4)
    release(&kmem.lock);
    80000aea:	00000097          	auipc	ra,0x0
    80000aee:	38c080e7          	jalr	908(ra) # 80000e76 <release>
}
    80000af2:	60e2                	ld	ra,24(sp)
    80000af4:	6442                	ld	s0,16(sp)
    80000af6:	64a2                	ld	s1,8(sp)
    80000af8:	6105                	addi	sp,sp,32
    80000afa:	8082                	ret
      panic("kfree");
    80000afc:	00007517          	auipc	a0,0x7
    80000b00:	54450513          	addi	a0,a0,1348 # 80008040 <etext+0x40>
    80000b04:	00000097          	auipc	ra,0x0
    80000b08:	a5c080e7          	jalr	-1444(ra) # 80000560 <panic>
      panic("kfree: negative reference count");
    80000b0c:	00007517          	auipc	a0,0x7
    80000b10:	53c50513          	addi	a0,a0,1340 # 80008048 <etext+0x48>
    80000b14:	00000097          	auipc	ra,0x0
    80000b18:	a4c080e7          	jalr	-1460(ra) # 80000560 <panic>
      release(&kmem.lock);
    80000b1c:	8536                	mv	a0,a3
    80000b1e:	00000097          	auipc	ra,0x0
    80000b22:	358080e7          	jalr	856(ra) # 80000e76 <release>
      return;
    80000b26:	b7f1                	j	80000af2 <kfree+0x94>

0000000080000b28 <freerange>:
{
    80000b28:	7139                	addi	sp,sp,-64
    80000b2a:	fc06                	sd	ra,56(sp)
    80000b2c:	f822                	sd	s0,48(sp)
    80000b2e:	f426                	sd	s1,40(sp)
    80000b30:	0080                	addi	s0,sp,64
    p = (char *)PGROUNDUP((uint64)pa_start);
    80000b32:	6785                	lui	a5,0x1
    80000b34:	fff78713          	addi	a4,a5,-1 # fff <_entry-0x7ffff001>
    80000b38:	953a                	add	a0,a0,a4
    80000b3a:	777d                	lui	a4,0xfffff
    80000b3c:	00e574b3          	and	s1,a0,a4
    for (; p + PGSIZE <= (char *)pa_end; p += PGSIZE)
    80000b40:	97a6                	add	a5,a5,s1
    80000b42:	04f5e563          	bltu	a1,a5,80000b8c <freerange+0x64>
    80000b46:	f04a                	sd	s2,32(sp)
    80000b48:	ec4e                	sd	s3,24(sp)
    80000b4a:	e852                	sd	s4,16(sp)
    80000b4c:	e456                	sd	s5,8(sp)
    80000b4e:	e05a                	sd	s6,0(sp)
    80000b50:	892e                	mv	s2,a1
        kmem.ref[(uint64)p/PGSIZE] = 1;
    80000b52:	00010b17          	auipc	s6,0x10
    80000b56:	1eeb0b13          	addi	s6,s6,494 # 80010d40 <kmem>
    80000b5a:	4a85                	li	s5,1
    for (; p + PGSIZE <= (char *)pa_end; p += PGSIZE)
    80000b5c:	6a05                	lui	s4,0x1
    80000b5e:	6989                	lui	s3,0x2
        kmem.ref[(uint64)p/PGSIZE] = 1;
    80000b60:	00c4d793          	srli	a5,s1,0xc
    80000b64:	0791                	addi	a5,a5,4
    80000b66:	078e                	slli	a5,a5,0x3
    80000b68:	97da                	add	a5,a5,s6
    80000b6a:	0157b023          	sd	s5,0(a5)
        kfree(p);
    80000b6e:	8526                	mv	a0,s1
    80000b70:	00000097          	auipc	ra,0x0
    80000b74:	eee080e7          	jalr	-274(ra) # 80000a5e <kfree>
    for (; p + PGSIZE <= (char *)pa_end; p += PGSIZE)
    80000b78:	87a6                	mv	a5,s1
    80000b7a:	94d2                	add	s1,s1,s4
    80000b7c:	97ce                	add	a5,a5,s3
    80000b7e:	fef971e3          	bgeu	s2,a5,80000b60 <freerange+0x38>
    80000b82:	7902                	ld	s2,32(sp)
    80000b84:	69e2                	ld	s3,24(sp)
    80000b86:	6a42                	ld	s4,16(sp)
    80000b88:	6aa2                	ld	s5,8(sp)
    80000b8a:	6b02                	ld	s6,0(sp)
}
    80000b8c:	70e2                	ld	ra,56(sp)
    80000b8e:	7442                	ld	s0,48(sp)
    80000b90:	74a2                	ld	s1,40(sp)
    80000b92:	6121                	addi	sp,sp,64
    80000b94:	8082                	ret

0000000080000b96 <kinit>:
{
    80000b96:	1101                	addi	sp,sp,-32
    80000b98:	ec06                	sd	ra,24(sp)
    80000b9a:	e822                	sd	s0,16(sp)
    80000b9c:	e426                	sd	s1,8(sp)
    80000b9e:	1000                	addi	s0,sp,32
    initlock(&kmem.lock, "kmem");
    80000ba0:	00007597          	auipc	a1,0x7
    80000ba4:	4c858593          	addi	a1,a1,1224 # 80008068 <etext+0x68>
    80000ba8:	00010517          	auipc	a0,0x10
    80000bac:	19850513          	addi	a0,a0,408 # 80010d40 <kmem>
    80000bb0:	00000097          	auipc	ra,0x0
    80000bb4:	182080e7          	jalr	386(ra) # 80000d32 <initlock>
    memset(kmem.ref, 0, sizeof(kmem.ref));
    80000bb8:	00440637          	lui	a2,0x440
    80000bbc:	4581                	li	a1,0
    80000bbe:	00010517          	auipc	a0,0x10
    80000bc2:	1a250513          	addi	a0,a0,418 # 80010d60 <kmem+0x20>
    80000bc6:	00000097          	auipc	ra,0x0
    80000bca:	2f8080e7          	jalr	760(ra) # 80000ebe <memset>
    FREE_PAGES = 0;
    80000bce:	00008497          	auipc	s1,0x8
    80000bd2:	efa48493          	addi	s1,s1,-262 # 80008ac8 <FREE_PAGES>
    80000bd6:	0004b023          	sd	zero,0(s1)
    freerange(end, (void *)PHYSTOP);
    80000bda:	45c5                	li	a1,17
    80000bdc:	05ee                	slli	a1,a1,0x1b
    80000bde:	00461517          	auipc	a0,0x461
    80000be2:	39250513          	addi	a0,a0,914 # 80461f70 <end>
    80000be6:	00000097          	auipc	ra,0x0
    80000bea:	f42080e7          	jalr	-190(ra) # 80000b28 <freerange>
    MAX_PAGES = FREE_PAGES;
    80000bee:	609c                	ld	a5,0(s1)
    80000bf0:	00008717          	auipc	a4,0x8
    80000bf4:	eef73023          	sd	a5,-288(a4) # 80008ad0 <MAX_PAGES>
}
    80000bf8:	60e2                	ld	ra,24(sp)
    80000bfa:	6442                	ld	s0,16(sp)
    80000bfc:	64a2                	ld	s1,8(sp)
    80000bfe:	6105                	addi	sp,sp,32
    80000c00:	8082                	ret

0000000080000c02 <kalloc>:
// Allocate one 4096-byte page of physical memory.
// Returns a pointer that the kernel can use.
// Returns 0 if the memory cannot be allocated.
void *
kalloc(void)
{
    80000c02:	1101                	addi	sp,sp,-32
    80000c04:	ec06                	sd	ra,24(sp)
    80000c06:	e822                	sd	s0,16(sp)
    80000c08:	e426                	sd	s1,8(sp)
    80000c0a:	1000                	addi	s0,sp,32
    struct run *r;

    acquire(&kmem.lock);
    80000c0c:	00010517          	auipc	a0,0x10
    80000c10:	13450513          	addi	a0,a0,308 # 80010d40 <kmem>
    80000c14:	00000097          	auipc	ra,0x0
    80000c18:	1b2080e7          	jalr	434(ra) # 80000dc6 <acquire>
    r = kmem.freelist;
    80000c1c:	00010497          	auipc	s1,0x10
    80000c20:	13c4b483          	ld	s1,316(s1) # 80010d58 <kmem+0x18>
    if(r) {
    80000c24:	c4b1                	beqz	s1,80000c70 <kalloc+0x6e>
      kmem.freelist = r->next;
    80000c26:	609c                	ld	a5,0(s1)
    80000c28:	00010517          	auipc	a0,0x10
    80000c2c:	11850513          	addi	a0,a0,280 # 80010d40 <kmem>
    80000c30:	ed1c                	sd	a5,24(a0)
      kmem.ref[(uint64)r/PGSIZE] = 1;
    80000c32:	00c4d793          	srli	a5,s1,0xc
    80000c36:	0791                	addi	a5,a5,4
    80000c38:	078e                	slli	a5,a5,0x3
    80000c3a:	97aa                	add	a5,a5,a0
    80000c3c:	4705                	li	a4,1
    80000c3e:	e398                	sd	a4,0(a5)
      FREE_PAGES--;
    80000c40:	00008717          	auipc	a4,0x8
    80000c44:	e8870713          	addi	a4,a4,-376 # 80008ac8 <FREE_PAGES>
    80000c48:	631c                	ld	a5,0(a4)
    80000c4a:	17fd                	addi	a5,a5,-1
    80000c4c:	e31c                	sd	a5,0(a4)
    }
    release(&kmem.lock);
    80000c4e:	00000097          	auipc	ra,0x0
    80000c52:	228080e7          	jalr	552(ra) # 80000e76 <release>

    if(r)
      memset((char*)r, 5, PGSIZE); // fill with junk
    80000c56:	6605                	lui	a2,0x1
    80000c58:	4595                	li	a1,5
    80000c5a:	8526                	mv	a0,s1
    80000c5c:	00000097          	auipc	ra,0x0
    80000c60:	262080e7          	jalr	610(ra) # 80000ebe <memset>
    return (void*)r;
}
    80000c64:	8526                	mv	a0,s1
    80000c66:	60e2                	ld	ra,24(sp)
    80000c68:	6442                	ld	s0,16(sp)
    80000c6a:	64a2                	ld	s1,8(sp)
    80000c6c:	6105                	addi	sp,sp,32
    80000c6e:	8082                	ret
    release(&kmem.lock);
    80000c70:	00010517          	auipc	a0,0x10
    80000c74:	0d050513          	addi	a0,a0,208 # 80010d40 <kmem>
    80000c78:	00000097          	auipc	ra,0x0
    80000c7c:	1fe080e7          	jalr	510(ra) # 80000e76 <release>
    if(r)
    80000c80:	b7d5                	j	80000c64 <kalloc+0x62>

0000000080000c82 <increment_ref>:

void
increment_ref(void *pa)
{
    80000c82:	1101                	addi	sp,sp,-32
    80000c84:	ec06                	sd	ra,24(sp)
    80000c86:	e822                	sd	s0,16(sp)
    80000c88:	e426                	sd	s1,8(sp)
    80000c8a:	1000                	addi	s0,sp,32
    if(((uint64)pa % PGSIZE) != 0 || (char*)pa < end || (uint64)pa >= PHYSTOP)
    80000c8c:	03451793          	slli	a5,a0,0x34
    80000c90:	eba1                	bnez	a5,80000ce0 <increment_ref+0x5e>
    80000c92:	84aa                	mv	s1,a0
    80000c94:	00461797          	auipc	a5,0x461
    80000c98:	2dc78793          	addi	a5,a5,732 # 80461f70 <end>
    80000c9c:	04f56263          	bltu	a0,a5,80000ce0 <increment_ref+0x5e>
    80000ca0:	47c5                	li	a5,17
    80000ca2:	07ee                	slli	a5,a5,0x1b
    80000ca4:	02f57e63          	bgeu	a0,a5,80000ce0 <increment_ref+0x5e>
      panic("increment_ref");
    acquire(&kmem.lock);
    80000ca8:	00010517          	auipc	a0,0x10
    80000cac:	09850513          	addi	a0,a0,152 # 80010d40 <kmem>
    80000cb0:	00000097          	auipc	ra,0x0
    80000cb4:	116080e7          	jalr	278(ra) # 80000dc6 <acquire>
    kmem.ref[(uint64)pa/PGSIZE]++;
    80000cb8:	80b1                	srli	s1,s1,0xc
    80000cba:	00010517          	auipc	a0,0x10
    80000cbe:	08650513          	addi	a0,a0,134 # 80010d40 <kmem>
    80000cc2:	0491                	addi	s1,s1,4
    80000cc4:	048e                	slli	s1,s1,0x3
    80000cc6:	94aa                	add	s1,s1,a0
    80000cc8:	609c                	ld	a5,0(s1)
    80000cca:	0785                	addi	a5,a5,1
    80000ccc:	e09c                	sd	a5,0(s1)
    release(&kmem.lock);
    80000cce:	00000097          	auipc	ra,0x0
    80000cd2:	1a8080e7          	jalr	424(ra) # 80000e76 <release>
}
    80000cd6:	60e2                	ld	ra,24(sp)
    80000cd8:	6442                	ld	s0,16(sp)
    80000cda:	64a2                	ld	s1,8(sp)
    80000cdc:	6105                	addi	sp,sp,32
    80000cde:	8082                	ret
      panic("increment_ref");
    80000ce0:	00007517          	auipc	a0,0x7
    80000ce4:	39050513          	addi	a0,a0,912 # 80008070 <etext+0x70>
    80000ce8:	00000097          	auipc	ra,0x0
    80000cec:	878080e7          	jalr	-1928(ra) # 80000560 <panic>

0000000080000cf0 <get_ref>:

int
get_ref(void *pa)
{
    80000cf0:	1101                	addi	sp,sp,-32
    80000cf2:	ec06                	sd	ra,24(sp)
    80000cf4:	e822                	sd	s0,16(sp)
    80000cf6:	e426                	sd	s1,8(sp)
    80000cf8:	1000                	addi	s0,sp,32
    80000cfa:	84aa                	mv	s1,a0
    acquire(&kmem.lock);
    80000cfc:	00010517          	auipc	a0,0x10
    80000d00:	04450513          	addi	a0,a0,68 # 80010d40 <kmem>
    80000d04:	00000097          	auipc	ra,0x0
    80000d08:	0c2080e7          	jalr	194(ra) # 80000dc6 <acquire>
    int ref = kmem.ref[(uint64)pa/PGSIZE];
    80000d0c:	00010517          	auipc	a0,0x10
    80000d10:	03450513          	addi	a0,a0,52 # 80010d40 <kmem>
    80000d14:	80b1                	srli	s1,s1,0xc
    80000d16:	0491                	addi	s1,s1,4
    80000d18:	048e                	slli	s1,s1,0x3
    80000d1a:	94aa                	add	s1,s1,a0
    80000d1c:	4084                	lw	s1,0(s1)
    release(&kmem.lock);
    80000d1e:	00000097          	auipc	ra,0x0
    80000d22:	158080e7          	jalr	344(ra) # 80000e76 <release>
    return ref;
}
    80000d26:	8526                	mv	a0,s1
    80000d28:	60e2                	ld	ra,24(sp)
    80000d2a:	6442                	ld	s0,16(sp)
    80000d2c:	64a2                	ld	s1,8(sp)
    80000d2e:	6105                	addi	sp,sp,32
    80000d30:	8082                	ret

0000000080000d32 <initlock>:
#include "proc.h"
#include "defs.h"

void
initlock(struct spinlock *lk, char *name)
{
    80000d32:	1141                	addi	sp,sp,-16
    80000d34:	e406                	sd	ra,8(sp)
    80000d36:	e022                	sd	s0,0(sp)
    80000d38:	0800                	addi	s0,sp,16
  lk->name = name;
    80000d3a:	e50c                	sd	a1,8(a0)
  lk->locked = 0;
    80000d3c:	00052023          	sw	zero,0(a0)
  lk->cpu = 0;
    80000d40:	00053823          	sd	zero,16(a0)
}
    80000d44:	60a2                	ld	ra,8(sp)
    80000d46:	6402                	ld	s0,0(sp)
    80000d48:	0141                	addi	sp,sp,16
    80000d4a:	8082                	ret

0000000080000d4c <holding>:
// Interrupts must be off.
int
holding(struct spinlock *lk)
{
  int r;
  r = (lk->locked && lk->cpu == mycpu());
    80000d4c:	411c                	lw	a5,0(a0)
    80000d4e:	e399                	bnez	a5,80000d54 <holding+0x8>
    80000d50:	4501                	li	a0,0
  return r;
}
    80000d52:	8082                	ret
{
    80000d54:	1101                	addi	sp,sp,-32
    80000d56:	ec06                	sd	ra,24(sp)
    80000d58:	e822                	sd	s0,16(sp)
    80000d5a:	e426                	sd	s1,8(sp)
    80000d5c:	1000                	addi	s0,sp,32
  r = (lk->locked && lk->cpu == mycpu());
    80000d5e:	6904                	ld	s1,16(a0)
    80000d60:	00001097          	auipc	ra,0x1
    80000d64:	f9e080e7          	jalr	-98(ra) # 80001cfe <mycpu>
    80000d68:	40a48533          	sub	a0,s1,a0
    80000d6c:	00153513          	seqz	a0,a0
}
    80000d70:	60e2                	ld	ra,24(sp)
    80000d72:	6442                	ld	s0,16(sp)
    80000d74:	64a2                	ld	s1,8(sp)
    80000d76:	6105                	addi	sp,sp,32
    80000d78:	8082                	ret

0000000080000d7a <push_off>:
// it takes two pop_off()s to undo two push_off()s.  Also, if interrupts
// are initially off, then push_off, pop_off leaves them off.

void
push_off(void)
{
    80000d7a:	1101                	addi	sp,sp,-32
    80000d7c:	ec06                	sd	ra,24(sp)
    80000d7e:	e822                	sd	s0,16(sp)
    80000d80:	e426                	sd	s1,8(sp)
    80000d82:	1000                	addi	s0,sp,32
    asm volatile("csrr %0, sstatus" : "=r"(x));
    80000d84:	100024f3          	csrr	s1,sstatus
    80000d88:	100027f3          	csrr	a5,sstatus
    w_sstatus(r_sstatus() & ~SSTATUS_SIE);
    80000d8c:	9bf5                	andi	a5,a5,-3
    asm volatile("csrw sstatus, %0" : : "r"(x));
    80000d8e:	10079073          	csrw	sstatus,a5
  int old = intr_get();

  intr_off();
  if(mycpu()->noff == 0)
    80000d92:	00001097          	auipc	ra,0x1
    80000d96:	f6c080e7          	jalr	-148(ra) # 80001cfe <mycpu>
    80000d9a:	5d3c                	lw	a5,120(a0)
    80000d9c:	cf89                	beqz	a5,80000db6 <push_off+0x3c>
    mycpu()->intena = old;
  mycpu()->noff += 1;
    80000d9e:	00001097          	auipc	ra,0x1
    80000da2:	f60080e7          	jalr	-160(ra) # 80001cfe <mycpu>
    80000da6:	5d3c                	lw	a5,120(a0)
    80000da8:	2785                	addiw	a5,a5,1
    80000daa:	dd3c                	sw	a5,120(a0)
}
    80000dac:	60e2                	ld	ra,24(sp)
    80000dae:	6442                	ld	s0,16(sp)
    80000db0:	64a2                	ld	s1,8(sp)
    80000db2:	6105                	addi	sp,sp,32
    80000db4:	8082                	ret
    mycpu()->intena = old;
    80000db6:	00001097          	auipc	ra,0x1
    80000dba:	f48080e7          	jalr	-184(ra) # 80001cfe <mycpu>
    return (x & SSTATUS_SIE) != 0;
    80000dbe:	8085                	srli	s1,s1,0x1
    80000dc0:	8885                	andi	s1,s1,1
    80000dc2:	dd64                	sw	s1,124(a0)
    80000dc4:	bfe9                	j	80000d9e <push_off+0x24>

0000000080000dc6 <acquire>:
{
    80000dc6:	1101                	addi	sp,sp,-32
    80000dc8:	ec06                	sd	ra,24(sp)
    80000dca:	e822                	sd	s0,16(sp)
    80000dcc:	e426                	sd	s1,8(sp)
    80000dce:	1000                	addi	s0,sp,32
    80000dd0:	84aa                	mv	s1,a0
  push_off(); // disable interrupts to avoid deadlock.
    80000dd2:	00000097          	auipc	ra,0x0
    80000dd6:	fa8080e7          	jalr	-88(ra) # 80000d7a <push_off>
  if(holding(lk))
    80000dda:	8526                	mv	a0,s1
    80000ddc:	00000097          	auipc	ra,0x0
    80000de0:	f70080e7          	jalr	-144(ra) # 80000d4c <holding>
  while(__sync_lock_test_and_set(&lk->locked, 1) != 0)
    80000de4:	4705                	li	a4,1
  if(holding(lk))
    80000de6:	e115                	bnez	a0,80000e0a <acquire+0x44>
  while(__sync_lock_test_and_set(&lk->locked, 1) != 0)
    80000de8:	87ba                	mv	a5,a4
    80000dea:	0cf4a7af          	amoswap.w.aq	a5,a5,(s1)
    80000dee:	2781                	sext.w	a5,a5
    80000df0:	ffe5                	bnez	a5,80000de8 <acquire+0x22>
  __sync_synchronize();
    80000df2:	0330000f          	fence	rw,rw
  lk->cpu = mycpu();
    80000df6:	00001097          	auipc	ra,0x1
    80000dfa:	f08080e7          	jalr	-248(ra) # 80001cfe <mycpu>
    80000dfe:	e888                	sd	a0,16(s1)
}
    80000e00:	60e2                	ld	ra,24(sp)
    80000e02:	6442                	ld	s0,16(sp)
    80000e04:	64a2                	ld	s1,8(sp)
    80000e06:	6105                	addi	sp,sp,32
    80000e08:	8082                	ret
    panic("acquire");
    80000e0a:	00007517          	auipc	a0,0x7
    80000e0e:	27650513          	addi	a0,a0,630 # 80008080 <etext+0x80>
    80000e12:	fffff097          	auipc	ra,0xfffff
    80000e16:	74e080e7          	jalr	1870(ra) # 80000560 <panic>

0000000080000e1a <pop_off>:

void
pop_off(void)
{
    80000e1a:	1141                	addi	sp,sp,-16
    80000e1c:	e406                	sd	ra,8(sp)
    80000e1e:	e022                	sd	s0,0(sp)
    80000e20:	0800                	addi	s0,sp,16
  struct cpu *c = mycpu();
    80000e22:	00001097          	auipc	ra,0x1
    80000e26:	edc080e7          	jalr	-292(ra) # 80001cfe <mycpu>
    asm volatile("csrr %0, sstatus" : "=r"(x));
    80000e2a:	100027f3          	csrr	a5,sstatus
    return (x & SSTATUS_SIE) != 0;
    80000e2e:	8b89                	andi	a5,a5,2
  if(intr_get())
    80000e30:	e39d                	bnez	a5,80000e56 <pop_off+0x3c>
    panic("pop_off - interruptible");
  if(c->noff < 1)
    80000e32:	5d3c                	lw	a5,120(a0)
    80000e34:	02f05963          	blez	a5,80000e66 <pop_off+0x4c>
    panic("pop_off");
  c->noff -= 1;
    80000e38:	37fd                	addiw	a5,a5,-1
    80000e3a:	dd3c                	sw	a5,120(a0)
  if(c->noff == 0 && c->intena)
    80000e3c:	eb89                	bnez	a5,80000e4e <pop_off+0x34>
    80000e3e:	5d7c                	lw	a5,124(a0)
    80000e40:	c799                	beqz	a5,80000e4e <pop_off+0x34>
    asm volatile("csrr %0, sstatus" : "=r"(x));
    80000e42:	100027f3          	csrr	a5,sstatus
    w_sstatus(r_sstatus() | SSTATUS_SIE);
    80000e46:	0027e793          	ori	a5,a5,2
    asm volatile("csrw sstatus, %0" : : "r"(x));
    80000e4a:	10079073          	csrw	sstatus,a5
    intr_on();
}
    80000e4e:	60a2                	ld	ra,8(sp)
    80000e50:	6402                	ld	s0,0(sp)
    80000e52:	0141                	addi	sp,sp,16
    80000e54:	8082                	ret
    panic("pop_off - interruptible");
    80000e56:	00007517          	auipc	a0,0x7
    80000e5a:	23250513          	addi	a0,a0,562 # 80008088 <etext+0x88>
    80000e5e:	fffff097          	auipc	ra,0xfffff
    80000e62:	702080e7          	jalr	1794(ra) # 80000560 <panic>
    panic("pop_off");
    80000e66:	00007517          	auipc	a0,0x7
    80000e6a:	23a50513          	addi	a0,a0,570 # 800080a0 <etext+0xa0>
    80000e6e:	fffff097          	auipc	ra,0xfffff
    80000e72:	6f2080e7          	jalr	1778(ra) # 80000560 <panic>

0000000080000e76 <release>:
{
    80000e76:	1101                	addi	sp,sp,-32
    80000e78:	ec06                	sd	ra,24(sp)
    80000e7a:	e822                	sd	s0,16(sp)
    80000e7c:	e426                	sd	s1,8(sp)
    80000e7e:	1000                	addi	s0,sp,32
    80000e80:	84aa                	mv	s1,a0
  if(!holding(lk))
    80000e82:	00000097          	auipc	ra,0x0
    80000e86:	eca080e7          	jalr	-310(ra) # 80000d4c <holding>
    80000e8a:	c115                	beqz	a0,80000eae <release+0x38>
  lk->cpu = 0;
    80000e8c:	0004b823          	sd	zero,16(s1)
  __sync_synchronize();
    80000e90:	0330000f          	fence	rw,rw
  __sync_lock_release(&lk->locked);
    80000e94:	0310000f          	fence	rw,w
    80000e98:	0004a023          	sw	zero,0(s1)
  pop_off();
    80000e9c:	00000097          	auipc	ra,0x0
    80000ea0:	f7e080e7          	jalr	-130(ra) # 80000e1a <pop_off>
}
    80000ea4:	60e2                	ld	ra,24(sp)
    80000ea6:	6442                	ld	s0,16(sp)
    80000ea8:	64a2                	ld	s1,8(sp)
    80000eaa:	6105                	addi	sp,sp,32
    80000eac:	8082                	ret
    panic("release");
    80000eae:	00007517          	auipc	a0,0x7
    80000eb2:	1fa50513          	addi	a0,a0,506 # 800080a8 <etext+0xa8>
    80000eb6:	fffff097          	auipc	ra,0xfffff
    80000eba:	6aa080e7          	jalr	1706(ra) # 80000560 <panic>

0000000080000ebe <memset>:
#include "types.h"

void*
memset(void *dst, int c, uint n)
{
    80000ebe:	1141                	addi	sp,sp,-16
    80000ec0:	e406                	sd	ra,8(sp)
    80000ec2:	e022                	sd	s0,0(sp)
    80000ec4:	0800                	addi	s0,sp,16
  char *cdst = (char *) dst;
  int i;
  for(i = 0; i < n; i++){
    80000ec6:	ca19                	beqz	a2,80000edc <memset+0x1e>
    80000ec8:	87aa                	mv	a5,a0
    80000eca:	1602                	slli	a2,a2,0x20
    80000ecc:	9201                	srli	a2,a2,0x20
    80000ece:	00a60733          	add	a4,a2,a0
    cdst[i] = c;
    80000ed2:	00b78023          	sb	a1,0(a5)
  for(i = 0; i < n; i++){
    80000ed6:	0785                	addi	a5,a5,1
    80000ed8:	fee79de3          	bne	a5,a4,80000ed2 <memset+0x14>
  }
  return dst;
}
    80000edc:	60a2                	ld	ra,8(sp)
    80000ede:	6402                	ld	s0,0(sp)
    80000ee0:	0141                	addi	sp,sp,16
    80000ee2:	8082                	ret

0000000080000ee4 <memcmp>:

int
memcmp(const void *v1, const void *v2, uint n)
{
    80000ee4:	1141                	addi	sp,sp,-16
    80000ee6:	e406                	sd	ra,8(sp)
    80000ee8:	e022                	sd	s0,0(sp)
    80000eea:	0800                	addi	s0,sp,16
  const uchar *s1, *s2;

  s1 = v1;
  s2 = v2;
  while(n-- > 0){
    80000eec:	ca0d                	beqz	a2,80000f1e <memcmp+0x3a>
    80000eee:	fff6069b          	addiw	a3,a2,-1 # fff <_entry-0x7ffff001>
    80000ef2:	1682                	slli	a3,a3,0x20
    80000ef4:	9281                	srli	a3,a3,0x20
    80000ef6:	0685                	addi	a3,a3,1
    80000ef8:	96aa                	add	a3,a3,a0
    if(*s1 != *s2)
    80000efa:	00054783          	lbu	a5,0(a0)
    80000efe:	0005c703          	lbu	a4,0(a1)
    80000f02:	00e79863          	bne	a5,a4,80000f12 <memcmp+0x2e>
      return *s1 - *s2;
    s1++, s2++;
    80000f06:	0505                	addi	a0,a0,1
    80000f08:	0585                	addi	a1,a1,1
  while(n-- > 0){
    80000f0a:	fed518e3          	bne	a0,a3,80000efa <memcmp+0x16>
  }

  return 0;
    80000f0e:	4501                	li	a0,0
    80000f10:	a019                	j	80000f16 <memcmp+0x32>
      return *s1 - *s2;
    80000f12:	40e7853b          	subw	a0,a5,a4
}
    80000f16:	60a2                	ld	ra,8(sp)
    80000f18:	6402                	ld	s0,0(sp)
    80000f1a:	0141                	addi	sp,sp,16
    80000f1c:	8082                	ret
  return 0;
    80000f1e:	4501                	li	a0,0
    80000f20:	bfdd                	j	80000f16 <memcmp+0x32>

0000000080000f22 <memmove>:

void*
memmove(void *dst, const void *src, uint n)
{
    80000f22:	1141                	addi	sp,sp,-16
    80000f24:	e406                	sd	ra,8(sp)
    80000f26:	e022                	sd	s0,0(sp)
    80000f28:	0800                	addi	s0,sp,16
  const char *s;
  char *d;

  if(n == 0)
    80000f2a:	c205                	beqz	a2,80000f4a <memmove+0x28>
    return dst;
  
  s = src;
  d = dst;
  if(s < d && s + n > d){
    80000f2c:	02a5e363          	bltu	a1,a0,80000f52 <memmove+0x30>
    s += n;
    d += n;
    while(n-- > 0)
      *--d = *--s;
  } else
    while(n-- > 0)
    80000f30:	1602                	slli	a2,a2,0x20
    80000f32:	9201                	srli	a2,a2,0x20
    80000f34:	00c587b3          	add	a5,a1,a2
{
    80000f38:	872a                	mv	a4,a0
      *d++ = *s++;
    80000f3a:	0585                	addi	a1,a1,1
    80000f3c:	0705                	addi	a4,a4,1
    80000f3e:	fff5c683          	lbu	a3,-1(a1)
    80000f42:	fed70fa3          	sb	a3,-1(a4)
    while(n-- > 0)
    80000f46:	feb79ae3          	bne	a5,a1,80000f3a <memmove+0x18>

  return dst;
}
    80000f4a:	60a2                	ld	ra,8(sp)
    80000f4c:	6402                	ld	s0,0(sp)
    80000f4e:	0141                	addi	sp,sp,16
    80000f50:	8082                	ret
  if(s < d && s + n > d){
    80000f52:	02061693          	slli	a3,a2,0x20
    80000f56:	9281                	srli	a3,a3,0x20
    80000f58:	00d58733          	add	a4,a1,a3
    80000f5c:	fce57ae3          	bgeu	a0,a4,80000f30 <memmove+0xe>
    d += n;
    80000f60:	96aa                	add	a3,a3,a0
    while(n-- > 0)
    80000f62:	fff6079b          	addiw	a5,a2,-1
    80000f66:	1782                	slli	a5,a5,0x20
    80000f68:	9381                	srli	a5,a5,0x20
    80000f6a:	fff7c793          	not	a5,a5
    80000f6e:	97ba                	add	a5,a5,a4
      *--d = *--s;
    80000f70:	177d                	addi	a4,a4,-1
    80000f72:	16fd                	addi	a3,a3,-1
    80000f74:	00074603          	lbu	a2,0(a4)
    80000f78:	00c68023          	sb	a2,0(a3)
    while(n-- > 0)
    80000f7c:	fee79ae3          	bne	a5,a4,80000f70 <memmove+0x4e>
    80000f80:	b7e9                	j	80000f4a <memmove+0x28>

0000000080000f82 <memcpy>:

// memcpy exists to placate GCC.  Use memmove.
void*
memcpy(void *dst, const void *src, uint n)
{
    80000f82:	1141                	addi	sp,sp,-16
    80000f84:	e406                	sd	ra,8(sp)
    80000f86:	e022                	sd	s0,0(sp)
    80000f88:	0800                	addi	s0,sp,16
  return memmove(dst, src, n);
    80000f8a:	00000097          	auipc	ra,0x0
    80000f8e:	f98080e7          	jalr	-104(ra) # 80000f22 <memmove>
}
    80000f92:	60a2                	ld	ra,8(sp)
    80000f94:	6402                	ld	s0,0(sp)
    80000f96:	0141                	addi	sp,sp,16
    80000f98:	8082                	ret

0000000080000f9a <strncmp>:

int
strncmp(const char *p, const char *q, uint n)
{
    80000f9a:	1141                	addi	sp,sp,-16
    80000f9c:	e406                	sd	ra,8(sp)
    80000f9e:	e022                	sd	s0,0(sp)
    80000fa0:	0800                	addi	s0,sp,16
  while(n > 0 && *p && *p == *q)
    80000fa2:	ce11                	beqz	a2,80000fbe <strncmp+0x24>
    80000fa4:	00054783          	lbu	a5,0(a0)
    80000fa8:	cf89                	beqz	a5,80000fc2 <strncmp+0x28>
    80000faa:	0005c703          	lbu	a4,0(a1)
    80000fae:	00f71a63          	bne	a4,a5,80000fc2 <strncmp+0x28>
    n--, p++, q++;
    80000fb2:	367d                	addiw	a2,a2,-1
    80000fb4:	0505                	addi	a0,a0,1
    80000fb6:	0585                	addi	a1,a1,1
  while(n > 0 && *p && *p == *q)
    80000fb8:	f675                	bnez	a2,80000fa4 <strncmp+0xa>
  if(n == 0)
    return 0;
    80000fba:	4501                	li	a0,0
    80000fbc:	a801                	j	80000fcc <strncmp+0x32>
    80000fbe:	4501                	li	a0,0
    80000fc0:	a031                	j	80000fcc <strncmp+0x32>
  return (uchar)*p - (uchar)*q;
    80000fc2:	00054503          	lbu	a0,0(a0)
    80000fc6:	0005c783          	lbu	a5,0(a1)
    80000fca:	9d1d                	subw	a0,a0,a5
}
    80000fcc:	60a2                	ld	ra,8(sp)
    80000fce:	6402                	ld	s0,0(sp)
    80000fd0:	0141                	addi	sp,sp,16
    80000fd2:	8082                	ret

0000000080000fd4 <strncpy>:

char*
strncpy(char *s, const char *t, int n)
{
    80000fd4:	1141                	addi	sp,sp,-16
    80000fd6:	e406                	sd	ra,8(sp)
    80000fd8:	e022                	sd	s0,0(sp)
    80000fda:	0800                	addi	s0,sp,16
  char *os;

  os = s;
  while(n-- > 0 && (*s++ = *t++) != 0)
    80000fdc:	87aa                	mv	a5,a0
    80000fde:	86b2                	mv	a3,a2
    80000fe0:	367d                	addiw	a2,a2,-1
    80000fe2:	02d05563          	blez	a3,8000100c <strncpy+0x38>
    80000fe6:	0785                	addi	a5,a5,1
    80000fe8:	0005c703          	lbu	a4,0(a1)
    80000fec:	fee78fa3          	sb	a4,-1(a5)
    80000ff0:	0585                	addi	a1,a1,1
    80000ff2:	f775                	bnez	a4,80000fde <strncpy+0xa>
    ;
  while(n-- > 0)
    80000ff4:	873e                	mv	a4,a5
    80000ff6:	00c05b63          	blez	a2,8000100c <strncpy+0x38>
    80000ffa:	9fb5                	addw	a5,a5,a3
    80000ffc:	37fd                	addiw	a5,a5,-1
    *s++ = 0;
    80000ffe:	0705                	addi	a4,a4,1
    80001000:	fe070fa3          	sb	zero,-1(a4)
  while(n-- > 0)
    80001004:	40e786bb          	subw	a3,a5,a4
    80001008:	fed04be3          	bgtz	a3,80000ffe <strncpy+0x2a>
  return os;
}
    8000100c:	60a2                	ld	ra,8(sp)
    8000100e:	6402                	ld	s0,0(sp)
    80001010:	0141                	addi	sp,sp,16
    80001012:	8082                	ret

0000000080001014 <safestrcpy>:

// Like strncpy but guaranteed to NUL-terminate.
char*
safestrcpy(char *s, const char *t, int n)
{
    80001014:	1141                	addi	sp,sp,-16
    80001016:	e406                	sd	ra,8(sp)
    80001018:	e022                	sd	s0,0(sp)
    8000101a:	0800                	addi	s0,sp,16
  char *os;

  os = s;
  if(n <= 0)
    8000101c:	02c05363          	blez	a2,80001042 <safestrcpy+0x2e>
    80001020:	fff6069b          	addiw	a3,a2,-1
    80001024:	1682                	slli	a3,a3,0x20
    80001026:	9281                	srli	a3,a3,0x20
    80001028:	96ae                	add	a3,a3,a1
    8000102a:	87aa                	mv	a5,a0
    return os;
  while(--n > 0 && (*s++ = *t++) != 0)
    8000102c:	00d58963          	beq	a1,a3,8000103e <safestrcpy+0x2a>
    80001030:	0585                	addi	a1,a1,1
    80001032:	0785                	addi	a5,a5,1
    80001034:	fff5c703          	lbu	a4,-1(a1)
    80001038:	fee78fa3          	sb	a4,-1(a5)
    8000103c:	fb65                	bnez	a4,8000102c <safestrcpy+0x18>
    ;
  *s = 0;
    8000103e:	00078023          	sb	zero,0(a5)
  return os;
}
    80001042:	60a2                	ld	ra,8(sp)
    80001044:	6402                	ld	s0,0(sp)
    80001046:	0141                	addi	sp,sp,16
    80001048:	8082                	ret

000000008000104a <strlen>:

int
strlen(const char *s)
{
    8000104a:	1141                	addi	sp,sp,-16
    8000104c:	e406                	sd	ra,8(sp)
    8000104e:	e022                	sd	s0,0(sp)
    80001050:	0800                	addi	s0,sp,16
  int n;

  for(n = 0; s[n]; n++)
    80001052:	00054783          	lbu	a5,0(a0)
    80001056:	cf99                	beqz	a5,80001074 <strlen+0x2a>
    80001058:	0505                	addi	a0,a0,1
    8000105a:	87aa                	mv	a5,a0
    8000105c:	86be                	mv	a3,a5
    8000105e:	0785                	addi	a5,a5,1
    80001060:	fff7c703          	lbu	a4,-1(a5)
    80001064:	ff65                	bnez	a4,8000105c <strlen+0x12>
    80001066:	40a6853b          	subw	a0,a3,a0
    8000106a:	2505                	addiw	a0,a0,1
    ;
  return n;
}
    8000106c:	60a2                	ld	ra,8(sp)
    8000106e:	6402                	ld	s0,0(sp)
    80001070:	0141                	addi	sp,sp,16
    80001072:	8082                	ret
  for(n = 0; s[n]; n++)
    80001074:	4501                	li	a0,0
    80001076:	bfdd                	j	8000106c <strlen+0x22>

0000000080001078 <main>:
volatile static int started = 0;

// start() jumps here in supervisor mode on all CPUs.
void
main()
{
    80001078:	1141                	addi	sp,sp,-16
    8000107a:	e406                	sd	ra,8(sp)
    8000107c:	e022                	sd	s0,0(sp)
    8000107e:	0800                	addi	s0,sp,16
  if(cpuid() == 0){
    80001080:	00001097          	auipc	ra,0x1
    80001084:	c6a080e7          	jalr	-918(ra) # 80001cea <cpuid>
    virtio_disk_init(); // emulated hard disk
    userinit();      // first user process
    __sync_synchronize();
    started = 1;
  } else {
    while(started == 0)
    80001088:	00008717          	auipc	a4,0x8
    8000108c:	a5070713          	addi	a4,a4,-1456 # 80008ad8 <started>
  if(cpuid() == 0){
    80001090:	c139                	beqz	a0,800010d6 <main+0x5e>
    while(started == 0)
    80001092:	431c                	lw	a5,0(a4)
    80001094:	2781                	sext.w	a5,a5
    80001096:	dff5                	beqz	a5,80001092 <main+0x1a>
      ;
    __sync_synchronize();
    80001098:	0330000f          	fence	rw,rw
    printf("hart %d starting\n", cpuid());
    8000109c:	00001097          	auipc	ra,0x1
    800010a0:	c4e080e7          	jalr	-946(ra) # 80001cea <cpuid>
    800010a4:	85aa                	mv	a1,a0
    800010a6:	00007517          	auipc	a0,0x7
    800010aa:	02250513          	addi	a0,a0,34 # 800080c8 <etext+0xc8>
    800010ae:	fffff097          	auipc	ra,0xfffff
    800010b2:	50e080e7          	jalr	1294(ra) # 800005bc <printf>
    kvminithart();    // turn on paging
    800010b6:	00000097          	auipc	ra,0x0
    800010ba:	0d8080e7          	jalr	216(ra) # 8000118e <kvminithart>
    trapinithart();   // install kernel trap vector
    800010be:	00002097          	auipc	ra,0x2
    800010c2:	ae6080e7          	jalr	-1306(ra) # 80002ba4 <trapinithart>
    plicinithart();   // ask PLIC for device interrupts
    800010c6:	00005097          	auipc	ra,0x5
    800010ca:	42e080e7          	jalr	1070(ra) # 800064f4 <plicinithart>
  }

  scheduler();        
    800010ce:	00001097          	auipc	ra,0x1
    800010d2:	2e2080e7          	jalr	738(ra) # 800023b0 <scheduler>
    consoleinit();
    800010d6:	fffff097          	auipc	ra,0xfffff
    800010da:	3ac080e7          	jalr	940(ra) # 80000482 <consoleinit>
    printfinit();
    800010de:	fffff097          	auipc	ra,0xfffff
    800010e2:	6e8080e7          	jalr	1768(ra) # 800007c6 <printfinit>
    printf("\n");
    800010e6:	00007517          	auipc	a0,0x7
    800010ea:	f2a50513          	addi	a0,a0,-214 # 80008010 <etext+0x10>
    800010ee:	fffff097          	auipc	ra,0xfffff
    800010f2:	4ce080e7          	jalr	1230(ra) # 800005bc <printf>
    printf("xv6 kernel is booting\n");
    800010f6:	00007517          	auipc	a0,0x7
    800010fa:	fba50513          	addi	a0,a0,-70 # 800080b0 <etext+0xb0>
    800010fe:	fffff097          	auipc	ra,0xfffff
    80001102:	4be080e7          	jalr	1214(ra) # 800005bc <printf>
    printf("\n");
    80001106:	00007517          	auipc	a0,0x7
    8000110a:	f0a50513          	addi	a0,a0,-246 # 80008010 <etext+0x10>
    8000110e:	fffff097          	auipc	ra,0xfffff
    80001112:	4ae080e7          	jalr	1198(ra) # 800005bc <printf>
    kinit();         // physical page allocator
    80001116:	00000097          	auipc	ra,0x0
    8000111a:	a80080e7          	jalr	-1408(ra) # 80000b96 <kinit>
    kvminit();       // create kernel page table
    8000111e:	00000097          	auipc	ra,0x0
    80001122:	32a080e7          	jalr	810(ra) # 80001448 <kvminit>
    kvminithart();   // turn on paging
    80001126:	00000097          	auipc	ra,0x0
    8000112a:	068080e7          	jalr	104(ra) # 8000118e <kvminithart>
    procinit();      // process table
    8000112e:	00001097          	auipc	ra,0x1
    80001132:	ad8080e7          	jalr	-1320(ra) # 80001c06 <procinit>
    trapinit();      // trap vectors
    80001136:	00002097          	auipc	ra,0x2
    8000113a:	a46080e7          	jalr	-1466(ra) # 80002b7c <trapinit>
    trapinithart();  // install kernel trap vector
    8000113e:	00002097          	auipc	ra,0x2
    80001142:	a66080e7          	jalr	-1434(ra) # 80002ba4 <trapinithart>
    plicinit();      // set up interrupt controller
    80001146:	00005097          	auipc	ra,0x5
    8000114a:	394080e7          	jalr	916(ra) # 800064da <plicinit>
    plicinithart();  // ask PLIC for device interrupts
    8000114e:	00005097          	auipc	ra,0x5
    80001152:	3a6080e7          	jalr	934(ra) # 800064f4 <plicinithart>
    binit();         // buffer cache
    80001156:	00002097          	auipc	ra,0x2
    8000115a:	428080e7          	jalr	1064(ra) # 8000357e <binit>
    iinit();         // inode table
    8000115e:	00003097          	auipc	ra,0x3
    80001162:	ab8080e7          	jalr	-1352(ra) # 80003c16 <iinit>
    fileinit();      // file table
    80001166:	00004097          	auipc	ra,0x4
    8000116a:	a8a080e7          	jalr	-1398(ra) # 80004bf0 <fileinit>
    virtio_disk_init(); // emulated hard disk
    8000116e:	00005097          	auipc	ra,0x5
    80001172:	48e080e7          	jalr	1166(ra) # 800065fc <virtio_disk_init>
    userinit();      // first user process
    80001176:	00001097          	auipc	ra,0x1
    8000117a:	e80080e7          	jalr	-384(ra) # 80001ff6 <userinit>
    __sync_synchronize();
    8000117e:	0330000f          	fence	rw,rw
    started = 1;
    80001182:	4785                	li	a5,1
    80001184:	00008717          	auipc	a4,0x8
    80001188:	94f72a23          	sw	a5,-1708(a4) # 80008ad8 <started>
    8000118c:	b789                	j	800010ce <main+0x56>

000000008000118e <kvminithart>:

// Switch h/w page table register to the kernel's page table,
// and enable paging.
void
kvminithart()
{
    8000118e:	1141                	addi	sp,sp,-16
    80001190:	e406                	sd	ra,8(sp)
    80001192:	e022                	sd	s0,0(sp)
    80001194:	0800                	addi	s0,sp,16
// flush the TLB.
static inline void
sfence_vma()
{
    // the zero, zero means flush all TLB entries.
    asm volatile("sfence.vma zero, zero");
    80001196:	12000073          	sfence.vma
  // wait for any previous writes to the page table memory to finish.
  sfence_vma();

  w_satp(MAKE_SATP(kernel_pagetable));
    8000119a:	00008797          	auipc	a5,0x8
    8000119e:	9467b783          	ld	a5,-1722(a5) # 80008ae0 <kernel_pagetable>
    800011a2:	83b1                	srli	a5,a5,0xc
    800011a4:	577d                	li	a4,-1
    800011a6:	177e                	slli	a4,a4,0x3f
    800011a8:	8fd9                	or	a5,a5,a4
    asm volatile("csrw satp, %0" : : "r"(x));
    800011aa:	18079073          	csrw	satp,a5
    asm volatile("sfence.vma zero, zero");
    800011ae:	12000073          	sfence.vma

  // flush stale entries from the TLB.
  sfence_vma();
}
    800011b2:	60a2                	ld	ra,8(sp)
    800011b4:	6402                	ld	s0,0(sp)
    800011b6:	0141                	addi	sp,sp,16
    800011b8:	8082                	ret

00000000800011ba <walk>:
//   21..29 -- 9 bits of level-1 index.
//   12..20 -- 9 bits of level-0 index.
//    0..11 -- 12 bits of byte offset within the page.
pte_t *
walk(pagetable_t pagetable, uint64 va, int alloc)
{
    800011ba:	7139                	addi	sp,sp,-64
    800011bc:	fc06                	sd	ra,56(sp)
    800011be:	f822                	sd	s0,48(sp)
    800011c0:	f426                	sd	s1,40(sp)
    800011c2:	f04a                	sd	s2,32(sp)
    800011c4:	ec4e                	sd	s3,24(sp)
    800011c6:	e852                	sd	s4,16(sp)
    800011c8:	e456                	sd	s5,8(sp)
    800011ca:	e05a                	sd	s6,0(sp)
    800011cc:	0080                	addi	s0,sp,64
    800011ce:	84aa                	mv	s1,a0
    800011d0:	89ae                	mv	s3,a1
    800011d2:	8ab2                	mv	s5,a2
  if(va >= MAXVA)
    800011d4:	57fd                	li	a5,-1
    800011d6:	83e9                	srli	a5,a5,0x1a
    800011d8:	4a79                	li	s4,30
    panic("walk");

  for(int level = 2; level > 0; level--) {
    800011da:	4b31                	li	s6,12
  if(va >= MAXVA)
    800011dc:	04b7e263          	bltu	a5,a1,80001220 <walk+0x66>
    pte_t *pte = &pagetable[PX(level, va)];
    800011e0:	0149d933          	srl	s2,s3,s4
    800011e4:	1ff97913          	andi	s2,s2,511
    800011e8:	090e                	slli	s2,s2,0x3
    800011ea:	9926                	add	s2,s2,s1
    if(*pte & PTE_V) {
    800011ec:	00093483          	ld	s1,0(s2)
    800011f0:	0014f793          	andi	a5,s1,1
    800011f4:	cf95                	beqz	a5,80001230 <walk+0x76>
      pagetable = (pagetable_t)PTE2PA(*pte);
    800011f6:	80a9                	srli	s1,s1,0xa
    800011f8:	04b2                	slli	s1,s1,0xc
  for(int level = 2; level > 0; level--) {
    800011fa:	3a5d                	addiw	s4,s4,-9 # ff7 <_entry-0x7ffff009>
    800011fc:	ff6a12e3          	bne	s4,s6,800011e0 <walk+0x26>
        return 0;
      memset(pagetable, 0, PGSIZE);
      *pte = PA2PTE(pagetable) | PTE_V;
    }
  }
  return &pagetable[PX(0, va)];
    80001200:	00c9d513          	srli	a0,s3,0xc
    80001204:	1ff57513          	andi	a0,a0,511
    80001208:	050e                	slli	a0,a0,0x3
    8000120a:	9526                	add	a0,a0,s1
}
    8000120c:	70e2                	ld	ra,56(sp)
    8000120e:	7442                	ld	s0,48(sp)
    80001210:	74a2                	ld	s1,40(sp)
    80001212:	7902                	ld	s2,32(sp)
    80001214:	69e2                	ld	s3,24(sp)
    80001216:	6a42                	ld	s4,16(sp)
    80001218:	6aa2                	ld	s5,8(sp)
    8000121a:	6b02                	ld	s6,0(sp)
    8000121c:	6121                	addi	sp,sp,64
    8000121e:	8082                	ret
    panic("walk");
    80001220:	00007517          	auipc	a0,0x7
    80001224:	ec050513          	addi	a0,a0,-320 # 800080e0 <etext+0xe0>
    80001228:	fffff097          	auipc	ra,0xfffff
    8000122c:	338080e7          	jalr	824(ra) # 80000560 <panic>
      if(!alloc || (pagetable = (pde_t*)kalloc()) == 0)
    80001230:	020a8663          	beqz	s5,8000125c <walk+0xa2>
    80001234:	00000097          	auipc	ra,0x0
    80001238:	9ce080e7          	jalr	-1586(ra) # 80000c02 <kalloc>
    8000123c:	84aa                	mv	s1,a0
    8000123e:	d579                	beqz	a0,8000120c <walk+0x52>
      memset(pagetable, 0, PGSIZE);
    80001240:	6605                	lui	a2,0x1
    80001242:	4581                	li	a1,0
    80001244:	00000097          	auipc	ra,0x0
    80001248:	c7a080e7          	jalr	-902(ra) # 80000ebe <memset>
      *pte = PA2PTE(pagetable) | PTE_V;
    8000124c:	00c4d793          	srli	a5,s1,0xc
    80001250:	07aa                	slli	a5,a5,0xa
    80001252:	0017e793          	ori	a5,a5,1
    80001256:	00f93023          	sd	a5,0(s2)
    8000125a:	b745                	j	800011fa <walk+0x40>
        return 0;
    8000125c:	4501                	li	a0,0
    8000125e:	b77d                	j	8000120c <walk+0x52>

0000000080001260 <walkaddr>:
walkaddr(pagetable_t pagetable, uint64 va)
{
  pte_t *pte;
  uint64 pa;

  if(va >= MAXVA)
    80001260:	57fd                	li	a5,-1
    80001262:	83e9                	srli	a5,a5,0x1a
    80001264:	00b7f463          	bgeu	a5,a1,8000126c <walkaddr+0xc>
    return 0;
    80001268:	4501                	li	a0,0
    return 0;
  if((*pte & PTE_U) == 0)
    return 0;
  pa = PTE2PA(*pte);
  return pa;
}
    8000126a:	8082                	ret
{
    8000126c:	1141                	addi	sp,sp,-16
    8000126e:	e406                	sd	ra,8(sp)
    80001270:	e022                	sd	s0,0(sp)
    80001272:	0800                	addi	s0,sp,16
  pte = walk(pagetable, va, 0);
    80001274:	4601                	li	a2,0
    80001276:	00000097          	auipc	ra,0x0
    8000127a:	f44080e7          	jalr	-188(ra) # 800011ba <walk>
  if(pte == 0)
    8000127e:	c105                	beqz	a0,8000129e <walkaddr+0x3e>
  if((*pte & PTE_V) == 0)
    80001280:	611c                	ld	a5,0(a0)
  if((*pte & PTE_U) == 0)
    80001282:	0117f693          	andi	a3,a5,17
    80001286:	4745                	li	a4,17
    return 0;
    80001288:	4501                	li	a0,0
  if((*pte & PTE_U) == 0)
    8000128a:	00e68663          	beq	a3,a4,80001296 <walkaddr+0x36>
}
    8000128e:	60a2                	ld	ra,8(sp)
    80001290:	6402                	ld	s0,0(sp)
    80001292:	0141                	addi	sp,sp,16
    80001294:	8082                	ret
  pa = PTE2PA(*pte);
    80001296:	83a9                	srli	a5,a5,0xa
    80001298:	00c79513          	slli	a0,a5,0xc
  return pa;
    8000129c:	bfcd                	j	8000128e <walkaddr+0x2e>
    return 0;
    8000129e:	4501                	li	a0,0
    800012a0:	b7fd                	j	8000128e <walkaddr+0x2e>

00000000800012a2 <mappages>:
// physical addresses starting at pa. va and size might not
// be page-aligned. Returns 0 on success, -1 if walk() couldn't
// allocate a needed page-table page.
int
mappages(pagetable_t pagetable, uint64 va, uint64 size, uint64 pa, int perm)
{
    800012a2:	715d                	addi	sp,sp,-80
    800012a4:	e486                	sd	ra,72(sp)
    800012a6:	e0a2                	sd	s0,64(sp)
    800012a8:	fc26                	sd	s1,56(sp)
    800012aa:	f84a                	sd	s2,48(sp)
    800012ac:	f44e                	sd	s3,40(sp)
    800012ae:	f052                	sd	s4,32(sp)
    800012b0:	ec56                	sd	s5,24(sp)
    800012b2:	e85a                	sd	s6,16(sp)
    800012b4:	e45e                	sd	s7,8(sp)
    800012b6:	e062                	sd	s8,0(sp)
    800012b8:	0880                	addi	s0,sp,80
  uint64 a, last;
  pte_t *pte;

  if(size == 0)
    800012ba:	ca21                	beqz	a2,8000130a <mappages+0x68>
    800012bc:	8aaa                	mv	s5,a0
    800012be:	8b3a                	mv	s6,a4
    panic("mappages: size");
  
  a = PGROUNDDOWN(va);
    800012c0:	777d                	lui	a4,0xfffff
    800012c2:	00e5f7b3          	and	a5,a1,a4
  last = PGROUNDDOWN(va + size - 1);
    800012c6:	fff58993          	addi	s3,a1,-1
    800012ca:	99b2                	add	s3,s3,a2
    800012cc:	00e9f9b3          	and	s3,s3,a4
  a = PGROUNDDOWN(va);
    800012d0:	893e                	mv	s2,a5
    800012d2:	40f68a33          	sub	s4,a3,a5
  for(;;){
    if((pte = walk(pagetable, a, 1)) == 0)
    800012d6:	4b85                	li	s7,1
    if(*pte & PTE_V)
      panic("mappages: remap");
    *pte = PA2PTE(pa) | perm | PTE_V;
    if(a == last)
      break;
    a += PGSIZE;
    800012d8:	6c05                	lui	s8,0x1
    800012da:	014904b3          	add	s1,s2,s4
    if((pte = walk(pagetable, a, 1)) == 0)
    800012de:	865e                	mv	a2,s7
    800012e0:	85ca                	mv	a1,s2
    800012e2:	8556                	mv	a0,s5
    800012e4:	00000097          	auipc	ra,0x0
    800012e8:	ed6080e7          	jalr	-298(ra) # 800011ba <walk>
    800012ec:	cd1d                	beqz	a0,8000132a <mappages+0x88>
    if(*pte & PTE_V)
    800012ee:	611c                	ld	a5,0(a0)
    800012f0:	8b85                	andi	a5,a5,1
    800012f2:	e785                	bnez	a5,8000131a <mappages+0x78>
    *pte = PA2PTE(pa) | perm | PTE_V;
    800012f4:	80b1                	srli	s1,s1,0xc
    800012f6:	04aa                	slli	s1,s1,0xa
    800012f8:	0164e4b3          	or	s1,s1,s6
    800012fc:	0014e493          	ori	s1,s1,1
    80001300:	e104                	sd	s1,0(a0)
    if(a == last)
    80001302:	05390163          	beq	s2,s3,80001344 <mappages+0xa2>
    a += PGSIZE;
    80001306:	9962                	add	s2,s2,s8
    if((pte = walk(pagetable, a, 1)) == 0)
    80001308:	bfc9                	j	800012da <mappages+0x38>
    panic("mappages: size");
    8000130a:	00007517          	auipc	a0,0x7
    8000130e:	dde50513          	addi	a0,a0,-546 # 800080e8 <etext+0xe8>
    80001312:	fffff097          	auipc	ra,0xfffff
    80001316:	24e080e7          	jalr	590(ra) # 80000560 <panic>
      panic("mappages: remap");
    8000131a:	00007517          	auipc	a0,0x7
    8000131e:	dde50513          	addi	a0,a0,-546 # 800080f8 <etext+0xf8>
    80001322:	fffff097          	auipc	ra,0xfffff
    80001326:	23e080e7          	jalr	574(ra) # 80000560 <panic>
      return -1;
    8000132a:	557d                	li	a0,-1
    pa += PGSIZE;
  }
  return 0;
}
    8000132c:	60a6                	ld	ra,72(sp)
    8000132e:	6406                	ld	s0,64(sp)
    80001330:	74e2                	ld	s1,56(sp)
    80001332:	7942                	ld	s2,48(sp)
    80001334:	79a2                	ld	s3,40(sp)
    80001336:	7a02                	ld	s4,32(sp)
    80001338:	6ae2                	ld	s5,24(sp)
    8000133a:	6b42                	ld	s6,16(sp)
    8000133c:	6ba2                	ld	s7,8(sp)
    8000133e:	6c02                	ld	s8,0(sp)
    80001340:	6161                	addi	sp,sp,80
    80001342:	8082                	ret
  return 0;
    80001344:	4501                	li	a0,0
    80001346:	b7dd                	j	8000132c <mappages+0x8a>

0000000080001348 <kvmmap>:
{
    80001348:	1141                	addi	sp,sp,-16
    8000134a:	e406                	sd	ra,8(sp)
    8000134c:	e022                	sd	s0,0(sp)
    8000134e:	0800                	addi	s0,sp,16
    80001350:	87b6                	mv	a5,a3
  if(mappages(kpgtbl, va, sz, pa, perm) != 0)
    80001352:	86b2                	mv	a3,a2
    80001354:	863e                	mv	a2,a5
    80001356:	00000097          	auipc	ra,0x0
    8000135a:	f4c080e7          	jalr	-180(ra) # 800012a2 <mappages>
    8000135e:	e509                	bnez	a0,80001368 <kvmmap+0x20>
}
    80001360:	60a2                	ld	ra,8(sp)
    80001362:	6402                	ld	s0,0(sp)
    80001364:	0141                	addi	sp,sp,16
    80001366:	8082                	ret
    panic("kvmmap");
    80001368:	00007517          	auipc	a0,0x7
    8000136c:	da050513          	addi	a0,a0,-608 # 80008108 <etext+0x108>
    80001370:	fffff097          	auipc	ra,0xfffff
    80001374:	1f0080e7          	jalr	496(ra) # 80000560 <panic>

0000000080001378 <kvmmake>:
{
    80001378:	1101                	addi	sp,sp,-32
    8000137a:	ec06                	sd	ra,24(sp)
    8000137c:	e822                	sd	s0,16(sp)
    8000137e:	e426                	sd	s1,8(sp)
    80001380:	e04a                	sd	s2,0(sp)
    80001382:	1000                	addi	s0,sp,32
  kpgtbl = (pagetable_t) kalloc();
    80001384:	00000097          	auipc	ra,0x0
    80001388:	87e080e7          	jalr	-1922(ra) # 80000c02 <kalloc>
    8000138c:	84aa                	mv	s1,a0
  memset(kpgtbl, 0, PGSIZE);
    8000138e:	6605                	lui	a2,0x1
    80001390:	4581                	li	a1,0
    80001392:	00000097          	auipc	ra,0x0
    80001396:	b2c080e7          	jalr	-1236(ra) # 80000ebe <memset>
  kvmmap(kpgtbl, UART0, UART0, PGSIZE, PTE_R | PTE_W);
    8000139a:	4719                	li	a4,6
    8000139c:	6685                	lui	a3,0x1
    8000139e:	10000637          	lui	a2,0x10000
    800013a2:	85b2                	mv	a1,a2
    800013a4:	8526                	mv	a0,s1
    800013a6:	00000097          	auipc	ra,0x0
    800013aa:	fa2080e7          	jalr	-94(ra) # 80001348 <kvmmap>
  kvmmap(kpgtbl, VIRTIO0, VIRTIO0, PGSIZE, PTE_R | PTE_W);
    800013ae:	4719                	li	a4,6
    800013b0:	6685                	lui	a3,0x1
    800013b2:	10001637          	lui	a2,0x10001
    800013b6:	85b2                	mv	a1,a2
    800013b8:	8526                	mv	a0,s1
    800013ba:	00000097          	auipc	ra,0x0
    800013be:	f8e080e7          	jalr	-114(ra) # 80001348 <kvmmap>
  kvmmap(kpgtbl, PLIC, PLIC, 0x400000, PTE_R | PTE_W);
    800013c2:	4719                	li	a4,6
    800013c4:	004006b7          	lui	a3,0x400
    800013c8:	0c000637          	lui	a2,0xc000
    800013cc:	85b2                	mv	a1,a2
    800013ce:	8526                	mv	a0,s1
    800013d0:	00000097          	auipc	ra,0x0
    800013d4:	f78080e7          	jalr	-136(ra) # 80001348 <kvmmap>
  kvmmap(kpgtbl, KERNBASE, KERNBASE, (uint64)etext-KERNBASE, PTE_R | PTE_X);
    800013d8:	00007917          	auipc	s2,0x7
    800013dc:	c2890913          	addi	s2,s2,-984 # 80008000 <etext>
    800013e0:	4729                	li	a4,10
    800013e2:	80007697          	auipc	a3,0x80007
    800013e6:	c1e68693          	addi	a3,a3,-994 # 8000 <_entry-0x7fff8000>
    800013ea:	4605                	li	a2,1
    800013ec:	067e                	slli	a2,a2,0x1f
    800013ee:	85b2                	mv	a1,a2
    800013f0:	8526                	mv	a0,s1
    800013f2:	00000097          	auipc	ra,0x0
    800013f6:	f56080e7          	jalr	-170(ra) # 80001348 <kvmmap>
  kvmmap(kpgtbl, (uint64)etext, (uint64)etext, PHYSTOP-(uint64)etext, PTE_R | PTE_W);
    800013fa:	4719                	li	a4,6
    800013fc:	46c5                	li	a3,17
    800013fe:	06ee                	slli	a3,a3,0x1b
    80001400:	412686b3          	sub	a3,a3,s2
    80001404:	864a                	mv	a2,s2
    80001406:	85ca                	mv	a1,s2
    80001408:	8526                	mv	a0,s1
    8000140a:	00000097          	auipc	ra,0x0
    8000140e:	f3e080e7          	jalr	-194(ra) # 80001348 <kvmmap>
  kvmmap(kpgtbl, TRAMPOLINE, (uint64)trampoline, PGSIZE, PTE_R | PTE_X);
    80001412:	4729                	li	a4,10
    80001414:	6685                	lui	a3,0x1
    80001416:	00006617          	auipc	a2,0x6
    8000141a:	bea60613          	addi	a2,a2,-1046 # 80007000 <_trampoline>
    8000141e:	040005b7          	lui	a1,0x4000
    80001422:	15fd                	addi	a1,a1,-1 # 3ffffff <_entry-0x7c000001>
    80001424:	05b2                	slli	a1,a1,0xc
    80001426:	8526                	mv	a0,s1
    80001428:	00000097          	auipc	ra,0x0
    8000142c:	f20080e7          	jalr	-224(ra) # 80001348 <kvmmap>
  proc_mapstacks(kpgtbl);
    80001430:	8526                	mv	a0,s1
    80001432:	00000097          	auipc	ra,0x0
    80001436:	72a080e7          	jalr	1834(ra) # 80001b5c <proc_mapstacks>
}
    8000143a:	8526                	mv	a0,s1
    8000143c:	60e2                	ld	ra,24(sp)
    8000143e:	6442                	ld	s0,16(sp)
    80001440:	64a2                	ld	s1,8(sp)
    80001442:	6902                	ld	s2,0(sp)
    80001444:	6105                	addi	sp,sp,32
    80001446:	8082                	ret

0000000080001448 <kvminit>:
{
    80001448:	1141                	addi	sp,sp,-16
    8000144a:	e406                	sd	ra,8(sp)
    8000144c:	e022                	sd	s0,0(sp)
    8000144e:	0800                	addi	s0,sp,16
  kernel_pagetable = kvmmake();
    80001450:	00000097          	auipc	ra,0x0
    80001454:	f28080e7          	jalr	-216(ra) # 80001378 <kvmmake>
    80001458:	00007797          	auipc	a5,0x7
    8000145c:	68a7b423          	sd	a0,1672(a5) # 80008ae0 <kernel_pagetable>
}
    80001460:	60a2                	ld	ra,8(sp)
    80001462:	6402                	ld	s0,0(sp)
    80001464:	0141                	addi	sp,sp,16
    80001466:	8082                	ret

0000000080001468 <uvmunmap>:
// Remove npages of mappings starting from va. va must be
// page-aligned. The mappings must exist.
// Optionally free the physical memory.
void
uvmunmap(pagetable_t pagetable, uint64 va, uint64 npages, int do_free)
{
    80001468:	715d                	addi	sp,sp,-80
    8000146a:	e486                	sd	ra,72(sp)
    8000146c:	e0a2                	sd	s0,64(sp)
    8000146e:	0880                	addi	s0,sp,80
  uint64 a;
  pte_t *pte;

  if((va % PGSIZE) != 0)
    80001470:	03459793          	slli	a5,a1,0x34
    80001474:	e39d                	bnez	a5,8000149a <uvmunmap+0x32>
    80001476:	f84a                	sd	s2,48(sp)
    80001478:	f44e                	sd	s3,40(sp)
    8000147a:	f052                	sd	s4,32(sp)
    8000147c:	ec56                	sd	s5,24(sp)
    8000147e:	e85a                	sd	s6,16(sp)
    80001480:	e45e                	sd	s7,8(sp)
    80001482:	8a2a                	mv	s4,a0
    80001484:	892e                	mv	s2,a1
    80001486:	8ab6                	mv	s5,a3
    panic("uvmunmap: not aligned");

  for(a = va; a < va + npages*PGSIZE; a += PGSIZE){
    80001488:	0632                	slli	a2,a2,0xc
    8000148a:	00b609b3          	add	s3,a2,a1
    if((pte = walk(pagetable, a, 0)) == 0)
      panic("uvmunmap: walk");
    if((*pte & PTE_V) == 0)
      panic("uvmunmap: not mapped");
    if(PTE_FLAGS(*pte) == PTE_V)
    8000148e:	4b85                	li	s7,1
  for(a = va; a < va + npages*PGSIZE; a += PGSIZE){
    80001490:	6b05                	lui	s6,0x1
    80001492:	0935fb63          	bgeu	a1,s3,80001528 <uvmunmap+0xc0>
    80001496:	fc26                	sd	s1,56(sp)
    80001498:	a8a9                	j	800014f2 <uvmunmap+0x8a>
    8000149a:	fc26                	sd	s1,56(sp)
    8000149c:	f84a                	sd	s2,48(sp)
    8000149e:	f44e                	sd	s3,40(sp)
    800014a0:	f052                	sd	s4,32(sp)
    800014a2:	ec56                	sd	s5,24(sp)
    800014a4:	e85a                	sd	s6,16(sp)
    800014a6:	e45e                	sd	s7,8(sp)
    panic("uvmunmap: not aligned");
    800014a8:	00007517          	auipc	a0,0x7
    800014ac:	c6850513          	addi	a0,a0,-920 # 80008110 <etext+0x110>
    800014b0:	fffff097          	auipc	ra,0xfffff
    800014b4:	0b0080e7          	jalr	176(ra) # 80000560 <panic>
      panic("uvmunmap: walk");
    800014b8:	00007517          	auipc	a0,0x7
    800014bc:	c7050513          	addi	a0,a0,-912 # 80008128 <etext+0x128>
    800014c0:	fffff097          	auipc	ra,0xfffff
    800014c4:	0a0080e7          	jalr	160(ra) # 80000560 <panic>
      panic("uvmunmap: not mapped");
    800014c8:	00007517          	auipc	a0,0x7
    800014cc:	c7050513          	addi	a0,a0,-912 # 80008138 <etext+0x138>
    800014d0:	fffff097          	auipc	ra,0xfffff
    800014d4:	090080e7          	jalr	144(ra) # 80000560 <panic>
      panic("uvmunmap: not a leaf");
    800014d8:	00007517          	auipc	a0,0x7
    800014dc:	c7850513          	addi	a0,a0,-904 # 80008150 <etext+0x150>
    800014e0:	fffff097          	auipc	ra,0xfffff
    800014e4:	080080e7          	jalr	128(ra) # 80000560 <panic>
    if(do_free){
      uint64 pa = PTE2PA(*pte);
      kfree((void*)pa);
    }
    *pte = 0;
    800014e8:	0004b023          	sd	zero,0(s1)
  for(a = va; a < va + npages*PGSIZE; a += PGSIZE){
    800014ec:	995a                	add	s2,s2,s6
    800014ee:	03397c63          	bgeu	s2,s3,80001526 <uvmunmap+0xbe>
    if((pte = walk(pagetable, a, 0)) == 0)
    800014f2:	4601                	li	a2,0
    800014f4:	85ca                	mv	a1,s2
    800014f6:	8552                	mv	a0,s4
    800014f8:	00000097          	auipc	ra,0x0
    800014fc:	cc2080e7          	jalr	-830(ra) # 800011ba <walk>
    80001500:	84aa                	mv	s1,a0
    80001502:	d95d                	beqz	a0,800014b8 <uvmunmap+0x50>
    if((*pte & PTE_V) == 0)
    80001504:	6108                	ld	a0,0(a0)
    80001506:	00157793          	andi	a5,a0,1
    8000150a:	dfdd                	beqz	a5,800014c8 <uvmunmap+0x60>
    if(PTE_FLAGS(*pte) == PTE_V)
    8000150c:	3ff57793          	andi	a5,a0,1023
    80001510:	fd7784e3          	beq	a5,s7,800014d8 <uvmunmap+0x70>
    if(do_free){
    80001514:	fc0a8ae3          	beqz	s5,800014e8 <uvmunmap+0x80>
      uint64 pa = PTE2PA(*pte);
    80001518:	8129                	srli	a0,a0,0xa
      kfree((void*)pa);
    8000151a:	0532                	slli	a0,a0,0xc
    8000151c:	fffff097          	auipc	ra,0xfffff
    80001520:	542080e7          	jalr	1346(ra) # 80000a5e <kfree>
    80001524:	b7d1                	j	800014e8 <uvmunmap+0x80>
    80001526:	74e2                	ld	s1,56(sp)
    80001528:	7942                	ld	s2,48(sp)
    8000152a:	79a2                	ld	s3,40(sp)
    8000152c:	7a02                	ld	s4,32(sp)
    8000152e:	6ae2                	ld	s5,24(sp)
    80001530:	6b42                	ld	s6,16(sp)
    80001532:	6ba2                	ld	s7,8(sp)
  }
}
    80001534:	60a6                	ld	ra,72(sp)
    80001536:	6406                	ld	s0,64(sp)
    80001538:	6161                	addi	sp,sp,80
    8000153a:	8082                	ret

000000008000153c <uvmcreate>:

// create an empty user page table.
// returns 0 if out of memory.
pagetable_t
uvmcreate()
{
    8000153c:	1101                	addi	sp,sp,-32
    8000153e:	ec06                	sd	ra,24(sp)
    80001540:	e822                	sd	s0,16(sp)
    80001542:	e426                	sd	s1,8(sp)
    80001544:	1000                	addi	s0,sp,32
  pagetable_t pagetable;
  pagetable = (pagetable_t) kalloc();
    80001546:	fffff097          	auipc	ra,0xfffff
    8000154a:	6bc080e7          	jalr	1724(ra) # 80000c02 <kalloc>
    8000154e:	84aa                	mv	s1,a0
  if(pagetable == 0)
    80001550:	c519                	beqz	a0,8000155e <uvmcreate+0x22>
    return 0;
  memset(pagetable, 0, PGSIZE);
    80001552:	6605                	lui	a2,0x1
    80001554:	4581                	li	a1,0
    80001556:	00000097          	auipc	ra,0x0
    8000155a:	968080e7          	jalr	-1688(ra) # 80000ebe <memset>
  return pagetable;
}
    8000155e:	8526                	mv	a0,s1
    80001560:	60e2                	ld	ra,24(sp)
    80001562:	6442                	ld	s0,16(sp)
    80001564:	64a2                	ld	s1,8(sp)
    80001566:	6105                	addi	sp,sp,32
    80001568:	8082                	ret

000000008000156a <uvmfirst>:
// Load the user initcode into address 0 of pagetable,
// for the very first process.
// sz must be less than a page.
void
uvmfirst(pagetable_t pagetable, uchar *src, uint sz)
{
    8000156a:	7179                	addi	sp,sp,-48
    8000156c:	f406                	sd	ra,40(sp)
    8000156e:	f022                	sd	s0,32(sp)
    80001570:	ec26                	sd	s1,24(sp)
    80001572:	e84a                	sd	s2,16(sp)
    80001574:	e44e                	sd	s3,8(sp)
    80001576:	e052                	sd	s4,0(sp)
    80001578:	1800                	addi	s0,sp,48
  char *mem;

  if(sz >= PGSIZE)
    8000157a:	6785                	lui	a5,0x1
    8000157c:	04f67863          	bgeu	a2,a5,800015cc <uvmfirst+0x62>
    80001580:	8a2a                	mv	s4,a0
    80001582:	89ae                	mv	s3,a1
    80001584:	84b2                	mv	s1,a2
    panic("uvmfirst: more than a page");
  mem = kalloc();
    80001586:	fffff097          	auipc	ra,0xfffff
    8000158a:	67c080e7          	jalr	1660(ra) # 80000c02 <kalloc>
    8000158e:	892a                	mv	s2,a0
  memset(mem, 0, PGSIZE);
    80001590:	6605                	lui	a2,0x1
    80001592:	4581                	li	a1,0
    80001594:	00000097          	auipc	ra,0x0
    80001598:	92a080e7          	jalr	-1750(ra) # 80000ebe <memset>
  mappages(pagetable, 0, PGSIZE, (uint64)mem, PTE_W|PTE_R|PTE_X|PTE_U);
    8000159c:	4779                	li	a4,30
    8000159e:	86ca                	mv	a3,s2
    800015a0:	6605                	lui	a2,0x1
    800015a2:	4581                	li	a1,0
    800015a4:	8552                	mv	a0,s4
    800015a6:	00000097          	auipc	ra,0x0
    800015aa:	cfc080e7          	jalr	-772(ra) # 800012a2 <mappages>
  memmove(mem, src, sz);
    800015ae:	8626                	mv	a2,s1
    800015b0:	85ce                	mv	a1,s3
    800015b2:	854a                	mv	a0,s2
    800015b4:	00000097          	auipc	ra,0x0
    800015b8:	96e080e7          	jalr	-1682(ra) # 80000f22 <memmove>
}
    800015bc:	70a2                	ld	ra,40(sp)
    800015be:	7402                	ld	s0,32(sp)
    800015c0:	64e2                	ld	s1,24(sp)
    800015c2:	6942                	ld	s2,16(sp)
    800015c4:	69a2                	ld	s3,8(sp)
    800015c6:	6a02                	ld	s4,0(sp)
    800015c8:	6145                	addi	sp,sp,48
    800015ca:	8082                	ret
    panic("uvmfirst: more than a page");
    800015cc:	00007517          	auipc	a0,0x7
    800015d0:	b9c50513          	addi	a0,a0,-1124 # 80008168 <etext+0x168>
    800015d4:	fffff097          	auipc	ra,0xfffff
    800015d8:	f8c080e7          	jalr	-116(ra) # 80000560 <panic>

00000000800015dc <uvmdealloc>:
// newsz.  oldsz and newsz need not be page-aligned, nor does newsz
// need to be less than oldsz.  oldsz can be larger than the actual
// process size.  Returns the new process size.
uint64
uvmdealloc(pagetable_t pagetable, uint64 oldsz, uint64 newsz)
{
    800015dc:	1101                	addi	sp,sp,-32
    800015de:	ec06                	sd	ra,24(sp)
    800015e0:	e822                	sd	s0,16(sp)
    800015e2:	e426                	sd	s1,8(sp)
    800015e4:	1000                	addi	s0,sp,32
  if(newsz >= oldsz)
    return oldsz;
    800015e6:	84ae                	mv	s1,a1
  if(newsz >= oldsz)
    800015e8:	00b67d63          	bgeu	a2,a1,80001602 <uvmdealloc+0x26>
    800015ec:	84b2                	mv	s1,a2

  if(PGROUNDUP(newsz) < PGROUNDUP(oldsz)){
    800015ee:	6785                	lui	a5,0x1
    800015f0:	17fd                	addi	a5,a5,-1 # fff <_entry-0x7ffff001>
    800015f2:	00f60733          	add	a4,a2,a5
    800015f6:	76fd                	lui	a3,0xfffff
    800015f8:	8f75                	and	a4,a4,a3
    800015fa:	97ae                	add	a5,a5,a1
    800015fc:	8ff5                	and	a5,a5,a3
    800015fe:	00f76863          	bltu	a4,a5,8000160e <uvmdealloc+0x32>
    int npages = (PGROUNDUP(oldsz) - PGROUNDUP(newsz)) / PGSIZE;
    uvmunmap(pagetable, PGROUNDUP(newsz), npages, 1);
  }

  return newsz;
}
    80001602:	8526                	mv	a0,s1
    80001604:	60e2                	ld	ra,24(sp)
    80001606:	6442                	ld	s0,16(sp)
    80001608:	64a2                	ld	s1,8(sp)
    8000160a:	6105                	addi	sp,sp,32
    8000160c:	8082                	ret
    int npages = (PGROUNDUP(oldsz) - PGROUNDUP(newsz)) / PGSIZE;
    8000160e:	8f99                	sub	a5,a5,a4
    80001610:	83b1                	srli	a5,a5,0xc
    uvmunmap(pagetable, PGROUNDUP(newsz), npages, 1);
    80001612:	4685                	li	a3,1
    80001614:	0007861b          	sext.w	a2,a5
    80001618:	85ba                	mv	a1,a4
    8000161a:	00000097          	auipc	ra,0x0
    8000161e:	e4e080e7          	jalr	-434(ra) # 80001468 <uvmunmap>
    80001622:	b7c5                	j	80001602 <uvmdealloc+0x26>

0000000080001624 <uvmalloc>:
  if(newsz < oldsz)
    80001624:	0ab66f63          	bltu	a2,a1,800016e2 <uvmalloc+0xbe>
{
    80001628:	715d                	addi	sp,sp,-80
    8000162a:	e486                	sd	ra,72(sp)
    8000162c:	e0a2                	sd	s0,64(sp)
    8000162e:	f052                	sd	s4,32(sp)
    80001630:	ec56                	sd	s5,24(sp)
    80001632:	e85a                	sd	s6,16(sp)
    80001634:	0880                	addi	s0,sp,80
    80001636:	8b2a                	mv	s6,a0
    80001638:	8ab2                	mv	s5,a2
  oldsz = PGROUNDUP(oldsz);
    8000163a:	6785                	lui	a5,0x1
    8000163c:	17fd                	addi	a5,a5,-1 # fff <_entry-0x7ffff001>
    8000163e:	95be                	add	a1,a1,a5
    80001640:	77fd                	lui	a5,0xfffff
    80001642:	00f5fa33          	and	s4,a1,a5
  for(a = oldsz; a < newsz; a += PGSIZE){
    80001646:	0aca7063          	bgeu	s4,a2,800016e6 <uvmalloc+0xc2>
    8000164a:	fc26                	sd	s1,56(sp)
    8000164c:	f84a                	sd	s2,48(sp)
    8000164e:	f44e                	sd	s3,40(sp)
    80001650:	e45e                	sd	s7,8(sp)
    80001652:	8952                	mv	s2,s4
    memset(mem, 0, PGSIZE);
    80001654:	6985                	lui	s3,0x1
    if(mappages(pagetable, a, PGSIZE, (uint64)mem, PTE_R|PTE_U|xperm) != 0){
    80001656:	0126eb93          	ori	s7,a3,18
    mem = kalloc();
    8000165a:	fffff097          	auipc	ra,0xfffff
    8000165e:	5a8080e7          	jalr	1448(ra) # 80000c02 <kalloc>
    80001662:	84aa                	mv	s1,a0
    if(mem == 0){
    80001664:	c915                	beqz	a0,80001698 <uvmalloc+0x74>
    memset(mem, 0, PGSIZE);
    80001666:	864e                	mv	a2,s3
    80001668:	4581                	li	a1,0
    8000166a:	00000097          	auipc	ra,0x0
    8000166e:	854080e7          	jalr	-1964(ra) # 80000ebe <memset>
    if(mappages(pagetable, a, PGSIZE, (uint64)mem, PTE_R|PTE_U|xperm) != 0){
    80001672:	875e                	mv	a4,s7
    80001674:	86a6                	mv	a3,s1
    80001676:	864e                	mv	a2,s3
    80001678:	85ca                	mv	a1,s2
    8000167a:	855a                	mv	a0,s6
    8000167c:	00000097          	auipc	ra,0x0
    80001680:	c26080e7          	jalr	-986(ra) # 800012a2 <mappages>
    80001684:	ed0d                	bnez	a0,800016be <uvmalloc+0x9a>
  for(a = oldsz; a < newsz; a += PGSIZE){
    80001686:	994e                	add	s2,s2,s3
    80001688:	fd5969e3          	bltu	s2,s5,8000165a <uvmalloc+0x36>
  return newsz;
    8000168c:	8556                	mv	a0,s5
    8000168e:	74e2                	ld	s1,56(sp)
    80001690:	7942                	ld	s2,48(sp)
    80001692:	79a2                	ld	s3,40(sp)
    80001694:	6ba2                	ld	s7,8(sp)
    80001696:	a829                	j	800016b0 <uvmalloc+0x8c>
      uvmdealloc(pagetable, a, oldsz);
    80001698:	8652                	mv	a2,s4
    8000169a:	85ca                	mv	a1,s2
    8000169c:	855a                	mv	a0,s6
    8000169e:	00000097          	auipc	ra,0x0
    800016a2:	f3e080e7          	jalr	-194(ra) # 800015dc <uvmdealloc>
      return 0;
    800016a6:	4501                	li	a0,0
    800016a8:	74e2                	ld	s1,56(sp)
    800016aa:	7942                	ld	s2,48(sp)
    800016ac:	79a2                	ld	s3,40(sp)
    800016ae:	6ba2                	ld	s7,8(sp)
}
    800016b0:	60a6                	ld	ra,72(sp)
    800016b2:	6406                	ld	s0,64(sp)
    800016b4:	7a02                	ld	s4,32(sp)
    800016b6:	6ae2                	ld	s5,24(sp)
    800016b8:	6b42                	ld	s6,16(sp)
    800016ba:	6161                	addi	sp,sp,80
    800016bc:	8082                	ret
      kfree(mem);
    800016be:	8526                	mv	a0,s1
    800016c0:	fffff097          	auipc	ra,0xfffff
    800016c4:	39e080e7          	jalr	926(ra) # 80000a5e <kfree>
      uvmdealloc(pagetable, a, oldsz);
    800016c8:	8652                	mv	a2,s4
    800016ca:	85ca                	mv	a1,s2
    800016cc:	855a                	mv	a0,s6
    800016ce:	00000097          	auipc	ra,0x0
    800016d2:	f0e080e7          	jalr	-242(ra) # 800015dc <uvmdealloc>
      return 0;
    800016d6:	4501                	li	a0,0
    800016d8:	74e2                	ld	s1,56(sp)
    800016da:	7942                	ld	s2,48(sp)
    800016dc:	79a2                	ld	s3,40(sp)
    800016de:	6ba2                	ld	s7,8(sp)
    800016e0:	bfc1                	j	800016b0 <uvmalloc+0x8c>
    return oldsz;
    800016e2:	852e                	mv	a0,a1
}
    800016e4:	8082                	ret
  return newsz;
    800016e6:	8532                	mv	a0,a2
    800016e8:	b7e1                	j	800016b0 <uvmalloc+0x8c>

00000000800016ea <freewalk>:

// Recursively free page-table pages.
// All leaf mappings must already have been removed.
void
freewalk(pagetable_t pagetable)
{
    800016ea:	7179                	addi	sp,sp,-48
    800016ec:	f406                	sd	ra,40(sp)
    800016ee:	f022                	sd	s0,32(sp)
    800016f0:	ec26                	sd	s1,24(sp)
    800016f2:	e84a                	sd	s2,16(sp)
    800016f4:	e44e                	sd	s3,8(sp)
    800016f6:	e052                	sd	s4,0(sp)
    800016f8:	1800                	addi	s0,sp,48
    800016fa:	8a2a                	mv	s4,a0
  // there are 2^9 = 512 PTEs in a page table.
  for(int i = 0; i < 512; i++){
    800016fc:	84aa                	mv	s1,a0
    800016fe:	6905                	lui	s2,0x1
    80001700:	992a                	add	s2,s2,a0
    pte_t pte = pagetable[i];
    if((pte & PTE_V) && (pte & (PTE_R|PTE_W|PTE_X)) == 0){
    80001702:	4985                	li	s3,1
    80001704:	a829                	j	8000171e <freewalk+0x34>
      // this PTE points to a lower-level page table.
      uint64 child = PTE2PA(pte);
    80001706:	83a9                	srli	a5,a5,0xa
      freewalk((pagetable_t)child);
    80001708:	00c79513          	slli	a0,a5,0xc
    8000170c:	00000097          	auipc	ra,0x0
    80001710:	fde080e7          	jalr	-34(ra) # 800016ea <freewalk>
      pagetable[i] = 0;
    80001714:	0004b023          	sd	zero,0(s1)
  for(int i = 0; i < 512; i++){
    80001718:	04a1                	addi	s1,s1,8
    8000171a:	03248163          	beq	s1,s2,8000173c <freewalk+0x52>
    pte_t pte = pagetable[i];
    8000171e:	609c                	ld	a5,0(s1)
    if((pte & PTE_V) && (pte & (PTE_R|PTE_W|PTE_X)) == 0){
    80001720:	00f7f713          	andi	a4,a5,15
    80001724:	ff3701e3          	beq	a4,s3,80001706 <freewalk+0x1c>
    } else if(pte & PTE_V){
    80001728:	8b85                	andi	a5,a5,1
    8000172a:	d7fd                	beqz	a5,80001718 <freewalk+0x2e>
      panic("freewalk: leaf");
    8000172c:	00007517          	auipc	a0,0x7
    80001730:	a5c50513          	addi	a0,a0,-1444 # 80008188 <etext+0x188>
    80001734:	fffff097          	auipc	ra,0xfffff
    80001738:	e2c080e7          	jalr	-468(ra) # 80000560 <panic>
    }
  }
  kfree((void*)pagetable);
    8000173c:	8552                	mv	a0,s4
    8000173e:	fffff097          	auipc	ra,0xfffff
    80001742:	320080e7          	jalr	800(ra) # 80000a5e <kfree>
}
    80001746:	70a2                	ld	ra,40(sp)
    80001748:	7402                	ld	s0,32(sp)
    8000174a:	64e2                	ld	s1,24(sp)
    8000174c:	6942                	ld	s2,16(sp)
    8000174e:	69a2                	ld	s3,8(sp)
    80001750:	6a02                	ld	s4,0(sp)
    80001752:	6145                	addi	sp,sp,48
    80001754:	8082                	ret

0000000080001756 <uvmfree>:

// Free user memory pages,
// then free page-table pages.
void
uvmfree(pagetable_t pagetable, uint64 sz)
{
    80001756:	1101                	addi	sp,sp,-32
    80001758:	ec06                	sd	ra,24(sp)
    8000175a:	e822                	sd	s0,16(sp)
    8000175c:	e426                	sd	s1,8(sp)
    8000175e:	1000                	addi	s0,sp,32
    80001760:	84aa                	mv	s1,a0
  if(sz > 0)
    80001762:	e999                	bnez	a1,80001778 <uvmfree+0x22>
    uvmunmap(pagetable, 0, PGROUNDUP(sz)/PGSIZE, 1);
  freewalk(pagetable);
    80001764:	8526                	mv	a0,s1
    80001766:	00000097          	auipc	ra,0x0
    8000176a:	f84080e7          	jalr	-124(ra) # 800016ea <freewalk>
}
    8000176e:	60e2                	ld	ra,24(sp)
    80001770:	6442                	ld	s0,16(sp)
    80001772:	64a2                	ld	s1,8(sp)
    80001774:	6105                	addi	sp,sp,32
    80001776:	8082                	ret
    uvmunmap(pagetable, 0, PGROUNDUP(sz)/PGSIZE, 1);
    80001778:	6785                	lui	a5,0x1
    8000177a:	17fd                	addi	a5,a5,-1 # fff <_entry-0x7ffff001>
    8000177c:	95be                	add	a1,a1,a5
    8000177e:	4685                	li	a3,1
    80001780:	00c5d613          	srli	a2,a1,0xc
    80001784:	4581                	li	a1,0
    80001786:	00000097          	auipc	ra,0x0
    8000178a:	ce2080e7          	jalr	-798(ra) # 80001468 <uvmunmap>
    8000178e:	bfd9                	j	80001764 <uvmfree+0xe>

0000000080001790 <uvmcopy>:
// physical memory.
// returns 0 on success, -1 on failure.
// frees any allocated pages on failure.
int
uvmcopy(pagetable_t old, pagetable_t new, uint64 sz)
{
    80001790:	715d                	addi	sp,sp,-80
    80001792:	e486                	sd	ra,72(sp)
    80001794:	e0a2                	sd	s0,64(sp)
    80001796:	f44e                	sd	s3,40(sp)
    80001798:	0880                	addi	s0,sp,80
  pte_t *pte;
  uint64 pa, i;
  uint flags;

  for(i = 0; i < sz; i += PGSIZE) {
    8000179a:	c279                	beqz	a2,80001860 <uvmcopy+0xd0>
    8000179c:	fc26                	sd	s1,56(sp)
    8000179e:	f84a                	sd	s2,48(sp)
    800017a0:	f052                	sd	s4,32(sp)
    800017a2:	ec56                	sd	s5,24(sp)
    800017a4:	e85a                	sd	s6,16(sp)
    800017a6:	e45e                	sd	s7,8(sp)
    800017a8:	8baa                	mv	s7,a0
    800017aa:	8b2e                	mv	s6,a1
    800017ac:	8ab2                	mv	s5,a2
    800017ae:	4481                	li	s1,0
      panic("uvmcopy: page not present");
    pa = PTE2PA(*pte);
    flags = PTE_FLAGS(*pte);
    *pte = (*pte & ~PTE_W) | PTE_COW;
    flags = (flags & ~PTE_W) | PTE_COW;
    if(mappages(new, i, PGSIZE, pa, flags) != 0){
    800017b0:	6a05                	lui	s4,0x1
    if((pte = walk(old, i, 0)) == 0)
    800017b2:	4601                	li	a2,0
    800017b4:	85a6                	mv	a1,s1
    800017b6:	855e                	mv	a0,s7
    800017b8:	00000097          	auipc	ra,0x0
    800017bc:	a02080e7          	jalr	-1534(ra) # 800011ba <walk>
    800017c0:	c931                	beqz	a0,80001814 <uvmcopy+0x84>
    if((*pte & PTE_V) == 0)
    800017c2:	6118                	ld	a4,0(a0)
    800017c4:	00177793          	andi	a5,a4,1
    800017c8:	cfb1                	beqz	a5,80001824 <uvmcopy+0x94>
    pa = PTE2PA(*pte);
    800017ca:	00a75913          	srli	s2,a4,0xa
    800017ce:	0932                	slli	s2,s2,0xc
    *pte = (*pte & ~PTE_W) | PTE_COW;
    800017d0:	f7b77793          	andi	a5,a4,-133
    800017d4:	0807e793          	ori	a5,a5,128
    800017d8:	e11c                	sd	a5,0(a0)
    if(mappages(new, i, PGSIZE, pa, flags) != 0){
    800017da:	37b77713          	andi	a4,a4,891
    800017de:	08076713          	ori	a4,a4,128
    800017e2:	86ca                	mv	a3,s2
    800017e4:	8652                	mv	a2,s4
    800017e6:	85a6                	mv	a1,s1
    800017e8:	855a                	mv	a0,s6
    800017ea:	00000097          	auipc	ra,0x0
    800017ee:	ab8080e7          	jalr	-1352(ra) # 800012a2 <mappages>
    800017f2:	89aa                	mv	s3,a0
    800017f4:	e121                	bnez	a0,80001834 <uvmcopy+0xa4>
      goto err;
    }
    increment_ref((void*)pa);
    800017f6:	854a                	mv	a0,s2
    800017f8:	fffff097          	auipc	ra,0xfffff
    800017fc:	48a080e7          	jalr	1162(ra) # 80000c82 <increment_ref>
  for(i = 0; i < sz; i += PGSIZE) {
    80001800:	94d2                	add	s1,s1,s4
    80001802:	fb54e8e3          	bltu	s1,s5,800017b2 <uvmcopy+0x22>
    80001806:	74e2                	ld	s1,56(sp)
    80001808:	7942                	ld	s2,48(sp)
    8000180a:	7a02                	ld	s4,32(sp)
    8000180c:	6ae2                	ld	s5,24(sp)
    8000180e:	6b42                	ld	s6,16(sp)
    80001810:	6ba2                	ld	s7,8(sp)
    80001812:	a089                	j	80001854 <uvmcopy+0xc4>
      panic("uvmcopy: pte should exist");
    80001814:	00007517          	auipc	a0,0x7
    80001818:	98450513          	addi	a0,a0,-1660 # 80008198 <etext+0x198>
    8000181c:	fffff097          	auipc	ra,0xfffff
    80001820:	d44080e7          	jalr	-700(ra) # 80000560 <panic>
      panic("uvmcopy: page not present");
    80001824:	00007517          	auipc	a0,0x7
    80001828:	99450513          	addi	a0,a0,-1644 # 800081b8 <etext+0x1b8>
    8000182c:	fffff097          	auipc	ra,0xfffff
    80001830:	d34080e7          	jalr	-716(ra) # 80000560 <panic>
  }
  return 0;

 err:
  uvmunmap(new, 0, i / PGSIZE, 1);
    80001834:	4685                	li	a3,1
    80001836:	00c4d613          	srli	a2,s1,0xc
    8000183a:	4581                	li	a1,0
    8000183c:	855a                	mv	a0,s6
    8000183e:	00000097          	auipc	ra,0x0
    80001842:	c2a080e7          	jalr	-982(ra) # 80001468 <uvmunmap>
  return -1;
    80001846:	59fd                	li	s3,-1
    80001848:	74e2                	ld	s1,56(sp)
    8000184a:	7942                	ld	s2,48(sp)
    8000184c:	7a02                	ld	s4,32(sp)
    8000184e:	6ae2                	ld	s5,24(sp)
    80001850:	6b42                	ld	s6,16(sp)
    80001852:	6ba2                	ld	s7,8(sp)
}
    80001854:	854e                	mv	a0,s3
    80001856:	60a6                	ld	ra,72(sp)
    80001858:	6406                	ld	s0,64(sp)
    8000185a:	79a2                	ld	s3,40(sp)
    8000185c:	6161                	addi	sp,sp,80
    8000185e:	8082                	ret
  return 0;
    80001860:	4981                	li	s3,0
    80001862:	bfcd                	j	80001854 <uvmcopy+0xc4>

0000000080001864 <uvmclear>:

// mark a PTE invalid for user access.
// used by exec for the user stack guard page.
void
uvmclear(pagetable_t pagetable, uint64 va)
{
    80001864:	1141                	addi	sp,sp,-16
    80001866:	e406                	sd	ra,8(sp)
    80001868:	e022                	sd	s0,0(sp)
    8000186a:	0800                	addi	s0,sp,16
  pte_t *pte;
  
  pte = walk(pagetable, va, 0);
    8000186c:	4601                	li	a2,0
    8000186e:	00000097          	auipc	ra,0x0
    80001872:	94c080e7          	jalr	-1716(ra) # 800011ba <walk>
  if(pte == 0)
    80001876:	c901                	beqz	a0,80001886 <uvmclear+0x22>
    panic("uvmclear");
  *pte &= ~PTE_U;
    80001878:	611c                	ld	a5,0(a0)
    8000187a:	9bbd                	andi	a5,a5,-17
    8000187c:	e11c                	sd	a5,0(a0)
}
    8000187e:	60a2                	ld	ra,8(sp)
    80001880:	6402                	ld	s0,0(sp)
    80001882:	0141                	addi	sp,sp,16
    80001884:	8082                	ret
    panic("uvmclear");
    80001886:	00007517          	auipc	a0,0x7
    8000188a:	95250513          	addi	a0,a0,-1710 # 800081d8 <etext+0x1d8>
    8000188e:	fffff097          	auipc	ra,0xfffff
    80001892:	cd2080e7          	jalr	-814(ra) # 80000560 <panic>

0000000080001896 <copyout>:
int
copyout(pagetable_t pagetable, uint64 dstva, char *src, uint64 len)
{
  uint64 n, va0, pa0;

  while(len > 0){
    80001896:	c6bd                	beqz	a3,80001904 <copyout+0x6e>
{
    80001898:	715d                	addi	sp,sp,-80
    8000189a:	e486                	sd	ra,72(sp)
    8000189c:	e0a2                	sd	s0,64(sp)
    8000189e:	fc26                	sd	s1,56(sp)
    800018a0:	f84a                	sd	s2,48(sp)
    800018a2:	f44e                	sd	s3,40(sp)
    800018a4:	f052                	sd	s4,32(sp)
    800018a6:	ec56                	sd	s5,24(sp)
    800018a8:	e85a                	sd	s6,16(sp)
    800018aa:	e45e                	sd	s7,8(sp)
    800018ac:	e062                	sd	s8,0(sp)
    800018ae:	0880                	addi	s0,sp,80
    800018b0:	8b2a                	mv	s6,a0
    800018b2:	8c2e                	mv	s8,a1
    800018b4:	8a32                	mv	s4,a2
    800018b6:	89b6                	mv	s3,a3
    va0 = PGROUNDDOWN(dstva);
    800018b8:	7bfd                	lui	s7,0xfffff
    pa0 = walkaddr(pagetable, va0);
    if(pa0 == 0)
      return -1;
    n = PGSIZE - (dstva - va0);
    800018ba:	6a85                	lui	s5,0x1
    800018bc:	a015                	j	800018e0 <copyout+0x4a>
    if(n > len)
      n = len;
    memmove((void *)(pa0 + (dstva - va0)), src, n);
    800018be:	9562                	add	a0,a0,s8
    800018c0:	0004861b          	sext.w	a2,s1
    800018c4:	85d2                	mv	a1,s4
    800018c6:	41250533          	sub	a0,a0,s2
    800018ca:	fffff097          	auipc	ra,0xfffff
    800018ce:	658080e7          	jalr	1624(ra) # 80000f22 <memmove>

    len -= n;
    800018d2:	409989b3          	sub	s3,s3,s1
    src += n;
    800018d6:	9a26                	add	s4,s4,s1
    dstva = va0 + PGSIZE;
    800018d8:	01590c33          	add	s8,s2,s5
  while(len > 0){
    800018dc:	02098263          	beqz	s3,80001900 <copyout+0x6a>
    va0 = PGROUNDDOWN(dstva);
    800018e0:	017c7933          	and	s2,s8,s7
    pa0 = walkaddr(pagetable, va0);
    800018e4:	85ca                	mv	a1,s2
    800018e6:	855a                	mv	a0,s6
    800018e8:	00000097          	auipc	ra,0x0
    800018ec:	978080e7          	jalr	-1672(ra) # 80001260 <walkaddr>
    if(pa0 == 0)
    800018f0:	cd01                	beqz	a0,80001908 <copyout+0x72>
    n = PGSIZE - (dstva - va0);
    800018f2:	418904b3          	sub	s1,s2,s8
    800018f6:	94d6                	add	s1,s1,s5
    if(n > len)
    800018f8:	fc99f3e3          	bgeu	s3,s1,800018be <copyout+0x28>
    800018fc:	84ce                	mv	s1,s3
    800018fe:	b7c1                	j	800018be <copyout+0x28>
  }
  return 0;
    80001900:	4501                	li	a0,0
    80001902:	a021                	j	8000190a <copyout+0x74>
    80001904:	4501                	li	a0,0
}
    80001906:	8082                	ret
      return -1;
    80001908:	557d                	li	a0,-1
}
    8000190a:	60a6                	ld	ra,72(sp)
    8000190c:	6406                	ld	s0,64(sp)
    8000190e:	74e2                	ld	s1,56(sp)
    80001910:	7942                	ld	s2,48(sp)
    80001912:	79a2                	ld	s3,40(sp)
    80001914:	7a02                	ld	s4,32(sp)
    80001916:	6ae2                	ld	s5,24(sp)
    80001918:	6b42                	ld	s6,16(sp)
    8000191a:	6ba2                	ld	s7,8(sp)
    8000191c:	6c02                	ld	s8,0(sp)
    8000191e:	6161                	addi	sp,sp,80
    80001920:	8082                	ret

0000000080001922 <copyin>:
int
copyin(pagetable_t pagetable, char *dst, uint64 srcva, uint64 len)
{
  uint64 n, va0, pa0;

  while(len > 0){
    80001922:	caa5                	beqz	a3,80001992 <copyin+0x70>
{
    80001924:	715d                	addi	sp,sp,-80
    80001926:	e486                	sd	ra,72(sp)
    80001928:	e0a2                	sd	s0,64(sp)
    8000192a:	fc26                	sd	s1,56(sp)
    8000192c:	f84a                	sd	s2,48(sp)
    8000192e:	f44e                	sd	s3,40(sp)
    80001930:	f052                	sd	s4,32(sp)
    80001932:	ec56                	sd	s5,24(sp)
    80001934:	e85a                	sd	s6,16(sp)
    80001936:	e45e                	sd	s7,8(sp)
    80001938:	e062                	sd	s8,0(sp)
    8000193a:	0880                	addi	s0,sp,80
    8000193c:	8b2a                	mv	s6,a0
    8000193e:	8a2e                	mv	s4,a1
    80001940:	8c32                	mv	s8,a2
    80001942:	89b6                	mv	s3,a3
    va0 = PGROUNDDOWN(srcva);
    80001944:	7bfd                	lui	s7,0xfffff
    pa0 = walkaddr(pagetable, va0);
    if(pa0 == 0)
      return -1;
    n = PGSIZE - (srcva - va0);
    80001946:	6a85                	lui	s5,0x1
    80001948:	a01d                	j	8000196e <copyin+0x4c>
    if(n > len)
      n = len;
    memmove(dst, (void *)(pa0 + (srcva - va0)), n);
    8000194a:	018505b3          	add	a1,a0,s8
    8000194e:	0004861b          	sext.w	a2,s1
    80001952:	412585b3          	sub	a1,a1,s2
    80001956:	8552                	mv	a0,s4
    80001958:	fffff097          	auipc	ra,0xfffff
    8000195c:	5ca080e7          	jalr	1482(ra) # 80000f22 <memmove>

    len -= n;
    80001960:	409989b3          	sub	s3,s3,s1
    dst += n;
    80001964:	9a26                	add	s4,s4,s1
    srcva = va0 + PGSIZE;
    80001966:	01590c33          	add	s8,s2,s5
  while(len > 0){
    8000196a:	02098263          	beqz	s3,8000198e <copyin+0x6c>
    va0 = PGROUNDDOWN(srcva);
    8000196e:	017c7933          	and	s2,s8,s7
    pa0 = walkaddr(pagetable, va0);
    80001972:	85ca                	mv	a1,s2
    80001974:	855a                	mv	a0,s6
    80001976:	00000097          	auipc	ra,0x0
    8000197a:	8ea080e7          	jalr	-1814(ra) # 80001260 <walkaddr>
    if(pa0 == 0)
    8000197e:	cd01                	beqz	a0,80001996 <copyin+0x74>
    n = PGSIZE - (srcva - va0);
    80001980:	418904b3          	sub	s1,s2,s8
    80001984:	94d6                	add	s1,s1,s5
    if(n > len)
    80001986:	fc99f2e3          	bgeu	s3,s1,8000194a <copyin+0x28>
    8000198a:	84ce                	mv	s1,s3
    8000198c:	bf7d                	j	8000194a <copyin+0x28>
  }
  return 0;
    8000198e:	4501                	li	a0,0
    80001990:	a021                	j	80001998 <copyin+0x76>
    80001992:	4501                	li	a0,0
}
    80001994:	8082                	ret
      return -1;
    80001996:	557d                	li	a0,-1
}
    80001998:	60a6                	ld	ra,72(sp)
    8000199a:	6406                	ld	s0,64(sp)
    8000199c:	74e2                	ld	s1,56(sp)
    8000199e:	7942                	ld	s2,48(sp)
    800019a0:	79a2                	ld	s3,40(sp)
    800019a2:	7a02                	ld	s4,32(sp)
    800019a4:	6ae2                	ld	s5,24(sp)
    800019a6:	6b42                	ld	s6,16(sp)
    800019a8:	6ba2                	ld	s7,8(sp)
    800019aa:	6c02                	ld	s8,0(sp)
    800019ac:	6161                	addi	sp,sp,80
    800019ae:	8082                	ret

00000000800019b0 <copyinstr>:
// Copy bytes to dst from virtual address srcva in a given page table,
// until a '\0', or max.
// Return 0 on success, -1 on error.
int
copyinstr(pagetable_t pagetable, char *dst, uint64 srcva, uint64 max)
{
    800019b0:	715d                	addi	sp,sp,-80
    800019b2:	e486                	sd	ra,72(sp)
    800019b4:	e0a2                	sd	s0,64(sp)
    800019b6:	fc26                	sd	s1,56(sp)
    800019b8:	f84a                	sd	s2,48(sp)
    800019ba:	f44e                	sd	s3,40(sp)
    800019bc:	f052                	sd	s4,32(sp)
    800019be:	ec56                	sd	s5,24(sp)
    800019c0:	e85a                	sd	s6,16(sp)
    800019c2:	e45e                	sd	s7,8(sp)
    800019c4:	0880                	addi	s0,sp,80
    800019c6:	8aaa                	mv	s5,a0
    800019c8:	89ae                	mv	s3,a1
    800019ca:	8bb2                	mv	s7,a2
    800019cc:	84b6                	mv	s1,a3
  uint64 n, va0, pa0;
  int got_null = 0;

  while(got_null == 0 && max > 0){
    va0 = PGROUNDDOWN(srcva);
    800019ce:	7b7d                	lui	s6,0xfffff
    pa0 = walkaddr(pagetable, va0);
    if(pa0 == 0)
      return -1;
    n = PGSIZE - (srcva - va0);
    800019d0:	6a05                	lui	s4,0x1
    800019d2:	a02d                	j	800019fc <copyinstr+0x4c>
      n = max;

    char *p = (char *) (pa0 + (srcva - va0));
    while(n > 0){
      if(*p == '\0'){
        *dst = '\0';
    800019d4:	00078023          	sb	zero,0(a5)
    800019d8:	4785                	li	a5,1
      dst++;
    }

    srcva = va0 + PGSIZE;
  }
  if(got_null){
    800019da:	0017c793          	xori	a5,a5,1
    800019de:	40f0053b          	negw	a0,a5
    return 0;
  } else {
    return -1;
  }
}
    800019e2:	60a6                	ld	ra,72(sp)
    800019e4:	6406                	ld	s0,64(sp)
    800019e6:	74e2                	ld	s1,56(sp)
    800019e8:	7942                	ld	s2,48(sp)
    800019ea:	79a2                	ld	s3,40(sp)
    800019ec:	7a02                	ld	s4,32(sp)
    800019ee:	6ae2                	ld	s5,24(sp)
    800019f0:	6b42                	ld	s6,16(sp)
    800019f2:	6ba2                	ld	s7,8(sp)
    800019f4:	6161                	addi	sp,sp,80
    800019f6:	8082                	ret
    srcva = va0 + PGSIZE;
    800019f8:	01490bb3          	add	s7,s2,s4
  while(got_null == 0 && max > 0){
    800019fc:	c8a1                	beqz	s1,80001a4c <copyinstr+0x9c>
    va0 = PGROUNDDOWN(srcva);
    800019fe:	016bf933          	and	s2,s7,s6
    pa0 = walkaddr(pagetable, va0);
    80001a02:	85ca                	mv	a1,s2
    80001a04:	8556                	mv	a0,s5
    80001a06:	00000097          	auipc	ra,0x0
    80001a0a:	85a080e7          	jalr	-1958(ra) # 80001260 <walkaddr>
    if(pa0 == 0)
    80001a0e:	c129                	beqz	a0,80001a50 <copyinstr+0xa0>
    n = PGSIZE - (srcva - va0);
    80001a10:	41790633          	sub	a2,s2,s7
    80001a14:	9652                	add	a2,a2,s4
    if(n > max)
    80001a16:	00c4f363          	bgeu	s1,a2,80001a1c <copyinstr+0x6c>
    80001a1a:	8626                	mv	a2,s1
    char *p = (char *) (pa0 + (srcva - va0));
    80001a1c:	412b8bb3          	sub	s7,s7,s2
    80001a20:	9baa                	add	s7,s7,a0
    while(n > 0){
    80001a22:	da79                	beqz	a2,800019f8 <copyinstr+0x48>
    80001a24:	87ce                	mv	a5,s3
      if(*p == '\0'){
    80001a26:	413b86b3          	sub	a3,s7,s3
    while(n > 0){
    80001a2a:	964e                	add	a2,a2,s3
    80001a2c:	85be                	mv	a1,a5
      if(*p == '\0'){
    80001a2e:	00f68733          	add	a4,a3,a5
    80001a32:	00074703          	lbu	a4,0(a4) # fffffffffffff000 <end+0xffffffff7fb9d090>
    80001a36:	df59                	beqz	a4,800019d4 <copyinstr+0x24>
        *dst = *p;
    80001a38:	00e78023          	sb	a4,0(a5)
      dst++;
    80001a3c:	0785                	addi	a5,a5,1
    while(n > 0){
    80001a3e:	fec797e3          	bne	a5,a2,80001a2c <copyinstr+0x7c>
    80001a42:	14fd                	addi	s1,s1,-1
    80001a44:	94ce                	add	s1,s1,s3
      --max;
    80001a46:	8c8d                	sub	s1,s1,a1
    80001a48:	89be                	mv	s3,a5
    80001a4a:	b77d                	j	800019f8 <copyinstr+0x48>
    80001a4c:	4781                	li	a5,0
    80001a4e:	b771                	j	800019da <copyinstr+0x2a>
      return -1;
    80001a50:	557d                	li	a0,-1
    80001a52:	bf41                	j	800019e2 <copyinstr+0x32>

0000000080001a54 <va2pa_helper>:

uint64
va2pa_helper(pagetable_t pagetable, uint64 va)
{
    80001a54:	1101                	addi	sp,sp,-32
    80001a56:	ec06                	sd	ra,24(sp)
    80001a58:	e822                	sd	s0,16(sp)
    80001a5a:	e426                	sd	s1,8(sp)
    80001a5c:	1000                	addi	s0,sp,32
    80001a5e:	84ae                	mv	s1,a1
    pte_t *pte;
    uint64 pa;

    pte = walk(pagetable, va, 0);
    80001a60:	4601                	li	a2,0
    80001a62:	fffff097          	auipc	ra,0xfffff
    80001a66:	758080e7          	jalr	1880(ra) # 800011ba <walk>
    if(pte == 0 || (*pte & PTE_V) == 0)
    80001a6a:	c10d                	beqz	a0,80001a8c <va2pa_helper+0x38>
    80001a6c:	611c                	ld	a5,0(a0)
    80001a6e:	0017f513          	andi	a0,a5,1
    80001a72:	c901                	beqz	a0,80001a82 <va2pa_helper+0x2e>
        return 0;
    pa = PTE2PA(*pte) | (va & 0xFFF);
    80001a74:	83a9                	srli	a5,a5,0xa
    80001a76:	07b2                	slli	a5,a5,0xc
    80001a78:	03449593          	slli	a1,s1,0x34
    80001a7c:	91d1                	srli	a1,a1,0x34
    80001a7e:	00b7e533          	or	a0,a5,a1
    return pa;
}
    80001a82:	60e2                	ld	ra,24(sp)
    80001a84:	6442                	ld	s0,16(sp)
    80001a86:	64a2                	ld	s1,8(sp)
    80001a88:	6105                	addi	sp,sp,32
    80001a8a:	8082                	ret
        return 0;
    80001a8c:	4501                	li	a0,0
    80001a8e:	bfd5                	j	80001a82 <va2pa_helper+0x2e>

0000000080001a90 <rr_scheduler>:
        (*sched_pointer)();
    }
}

void rr_scheduler(void)
{
    80001a90:	715d                	addi	sp,sp,-80
    80001a92:	e486                	sd	ra,72(sp)
    80001a94:	e0a2                	sd	s0,64(sp)
    80001a96:	fc26                	sd	s1,56(sp)
    80001a98:	f84a                	sd	s2,48(sp)
    80001a9a:	f44e                	sd	s3,40(sp)
    80001a9c:	f052                	sd	s4,32(sp)
    80001a9e:	ec56                	sd	s5,24(sp)
    80001aa0:	e85a                	sd	s6,16(sp)
    80001aa2:	e45e                	sd	s7,8(sp)
    80001aa4:	0880                	addi	s0,sp,80
    asm volatile("mv %0, tp" : "=r"(x));
    80001aa6:	8792                	mv	a5,tp
    int id = r_tp();
    80001aa8:	2781                	sext.w	a5,a5
    struct proc *p;
    struct cpu *c = mycpu();

    c->proc = 0;
    80001aaa:	0044fa17          	auipc	s4,0x44f
    80001aae:	2b6a0a13          	addi	s4,s4,694 # 80450d60 <cpus>
    80001ab2:	00779713          	slli	a4,a5,0x7
    80001ab6:	00ea06b3          	add	a3,s4,a4
    80001aba:	0006b023          	sd	zero,0(a3) # fffffffffffff000 <end+0xffffffff7fb9d090>
                // Switch to chosen process.  It is the process's job
                // to release its lock and then reacquire it
                // before jumping back to us.
                p->state = RUNNING;
                c->proc = p;
                swtch(&c->context, &p->context);
    80001abe:	0721                	addi	a4,a4,8
    80001ac0:	9a3a                	add	s4,s4,a4
            if (p->state == RUNNABLE)
    80001ac2:	498d                	li	s3,3
                p->state = RUNNING;
    80001ac4:	4b91                	li	s7,4
                c->proc = p;
    80001ac6:	8936                	mv	s2,a3
    asm volatile("csrr %0, sstatus" : "=r"(x));
    80001ac8:	100027f3          	csrr	a5,sstatus
    w_sstatus(r_sstatus() | SSTATUS_SIE);
    80001acc:	0027e793          	ori	a5,a5,2
    asm volatile("csrw sstatus, %0" : : "r"(x));
    80001ad0:	10079073          	csrw	sstatus,a5
        for (p = proc; p < &proc[NPROC]; p++)
    80001ad4:	0044f497          	auipc	s1,0x44f
    80001ad8:	6bc48493          	addi	s1,s1,1724 # 80451190 <proc>
                // check if we are still the right scheduler (or if schedset changed)
                if (sched_pointer != &rr_scheduler)
    80001adc:	00007b17          	auipc	s6,0x7
    80001ae0:	f5cb0b13          	addi	s6,s6,-164 # 80008a38 <sched_pointer>
    80001ae4:	00000a97          	auipc	s5,0x0
    80001ae8:	faca8a93          	addi	s5,s5,-84 # 80001a90 <rr_scheduler>
    80001aec:	a835                	j	80001b28 <rr_scheduler+0x98>
                {
                    release(&p->lock);
    80001aee:	8526                	mv	a0,s1
    80001af0:	fffff097          	auipc	ra,0xfffff
    80001af4:	386080e7          	jalr	902(ra) # 80000e76 <release>
                c->proc = 0;
            }
            release(&p->lock);
        }
    }
}
    80001af8:	60a6                	ld	ra,72(sp)
    80001afa:	6406                	ld	s0,64(sp)
    80001afc:	74e2                	ld	s1,56(sp)
    80001afe:	7942                	ld	s2,48(sp)
    80001b00:	79a2                	ld	s3,40(sp)
    80001b02:	7a02                	ld	s4,32(sp)
    80001b04:	6ae2                	ld	s5,24(sp)
    80001b06:	6b42                	ld	s6,16(sp)
    80001b08:	6ba2                	ld	s7,8(sp)
    80001b0a:	6161                	addi	sp,sp,80
    80001b0c:	8082                	ret
            release(&p->lock);
    80001b0e:	8526                	mv	a0,s1
    80001b10:	fffff097          	auipc	ra,0xfffff
    80001b14:	366080e7          	jalr	870(ra) # 80000e76 <release>
        for (p = proc; p < &proc[NPROC]; p++)
    80001b18:	16848493          	addi	s1,s1,360
    80001b1c:	00455797          	auipc	a5,0x455
    80001b20:	07478793          	addi	a5,a5,116 # 80456b90 <tickslock>
    80001b24:	faf482e3          	beq	s1,a5,80001ac8 <rr_scheduler+0x38>
            acquire(&p->lock);
    80001b28:	8526                	mv	a0,s1
    80001b2a:	fffff097          	auipc	ra,0xfffff
    80001b2e:	29c080e7          	jalr	668(ra) # 80000dc6 <acquire>
            if (p->state == RUNNABLE)
    80001b32:	4c9c                	lw	a5,24(s1)
    80001b34:	fd379de3          	bne	a5,s3,80001b0e <rr_scheduler+0x7e>
                p->state = RUNNING;
    80001b38:	0174ac23          	sw	s7,24(s1)
                c->proc = p;
    80001b3c:	00993023          	sd	s1,0(s2) # 1000 <_entry-0x7ffff000>
                swtch(&c->context, &p->context);
    80001b40:	06048593          	addi	a1,s1,96
    80001b44:	8552                	mv	a0,s4
    80001b46:	00001097          	auipc	ra,0x1
    80001b4a:	fcc080e7          	jalr	-52(ra) # 80002b12 <swtch>
                if (sched_pointer != &rr_scheduler)
    80001b4e:	000b3783          	ld	a5,0(s6)
    80001b52:	f9579ee3          	bne	a5,s5,80001aee <rr_scheduler+0x5e>
                c->proc = 0;
    80001b56:	00093023          	sd	zero,0(s2)
    80001b5a:	bf55                	j	80001b0e <rr_scheduler+0x7e>

0000000080001b5c <proc_mapstacks>:
{
    80001b5c:	715d                	addi	sp,sp,-80
    80001b5e:	e486                	sd	ra,72(sp)
    80001b60:	e0a2                	sd	s0,64(sp)
    80001b62:	fc26                	sd	s1,56(sp)
    80001b64:	f84a                	sd	s2,48(sp)
    80001b66:	f44e                	sd	s3,40(sp)
    80001b68:	f052                	sd	s4,32(sp)
    80001b6a:	ec56                	sd	s5,24(sp)
    80001b6c:	e85a                	sd	s6,16(sp)
    80001b6e:	e45e                	sd	s7,8(sp)
    80001b70:	e062                	sd	s8,0(sp)
    80001b72:	0880                	addi	s0,sp,80
    80001b74:	8a2a                	mv	s4,a0
    for (p = proc; p < &proc[NPROC]; p++)
    80001b76:	0044f497          	auipc	s1,0x44f
    80001b7a:	61a48493          	addi	s1,s1,1562 # 80451190 <proc>
        uint64 va = KSTACK((int)(p - proc));
    80001b7e:	8c26                	mv	s8,s1
    80001b80:	a4fa57b7          	lui	a5,0xa4fa5
    80001b84:	fa578793          	addi	a5,a5,-91 # ffffffffa4fa4fa5 <end+0xffffffff24b43035>
    80001b88:	4fa50937          	lui	s2,0x4fa50
    80001b8c:	a5090913          	addi	s2,s2,-1456 # 4fa4fa50 <_entry-0x305b05b0>
    80001b90:	1902                	slli	s2,s2,0x20
    80001b92:	993e                	add	s2,s2,a5
    80001b94:	040009b7          	lui	s3,0x4000
    80001b98:	19fd                	addi	s3,s3,-1 # 3ffffff <_entry-0x7c000001>
    80001b9a:	09b2                	slli	s3,s3,0xc
        kvmmap(kpgtbl, va, (uint64)pa, PGSIZE, PTE_R | PTE_W);
    80001b9c:	4b99                	li	s7,6
    80001b9e:	6b05                	lui	s6,0x1
    for (p = proc; p < &proc[NPROC]; p++)
    80001ba0:	00455a97          	auipc	s5,0x455
    80001ba4:	ff0a8a93          	addi	s5,s5,-16 # 80456b90 <tickslock>
        char *pa = kalloc();
    80001ba8:	fffff097          	auipc	ra,0xfffff
    80001bac:	05a080e7          	jalr	90(ra) # 80000c02 <kalloc>
    80001bb0:	862a                	mv	a2,a0
        if (pa == 0)
    80001bb2:	c131                	beqz	a0,80001bf6 <proc_mapstacks+0x9a>
        uint64 va = KSTACK((int)(p - proc));
    80001bb4:	418485b3          	sub	a1,s1,s8
    80001bb8:	858d                	srai	a1,a1,0x3
    80001bba:	032585b3          	mul	a1,a1,s2
    80001bbe:	2585                	addiw	a1,a1,1
    80001bc0:	00d5959b          	slliw	a1,a1,0xd
        kvmmap(kpgtbl, va, (uint64)pa, PGSIZE, PTE_R | PTE_W);
    80001bc4:	875e                	mv	a4,s7
    80001bc6:	86da                	mv	a3,s6
    80001bc8:	40b985b3          	sub	a1,s3,a1
    80001bcc:	8552                	mv	a0,s4
    80001bce:	fffff097          	auipc	ra,0xfffff
    80001bd2:	77a080e7          	jalr	1914(ra) # 80001348 <kvmmap>
    for (p = proc; p < &proc[NPROC]; p++)
    80001bd6:	16848493          	addi	s1,s1,360
    80001bda:	fd5497e3          	bne	s1,s5,80001ba8 <proc_mapstacks+0x4c>
}
    80001bde:	60a6                	ld	ra,72(sp)
    80001be0:	6406                	ld	s0,64(sp)
    80001be2:	74e2                	ld	s1,56(sp)
    80001be4:	7942                	ld	s2,48(sp)
    80001be6:	79a2                	ld	s3,40(sp)
    80001be8:	7a02                	ld	s4,32(sp)
    80001bea:	6ae2                	ld	s5,24(sp)
    80001bec:	6b42                	ld	s6,16(sp)
    80001bee:	6ba2                	ld	s7,8(sp)
    80001bf0:	6c02                	ld	s8,0(sp)
    80001bf2:	6161                	addi	sp,sp,80
    80001bf4:	8082                	ret
            panic("kalloc");
    80001bf6:	00006517          	auipc	a0,0x6
    80001bfa:	5f250513          	addi	a0,a0,1522 # 800081e8 <etext+0x1e8>
    80001bfe:	fffff097          	auipc	ra,0xfffff
    80001c02:	962080e7          	jalr	-1694(ra) # 80000560 <panic>

0000000080001c06 <procinit>:
{
    80001c06:	7139                	addi	sp,sp,-64
    80001c08:	fc06                	sd	ra,56(sp)
    80001c0a:	f822                	sd	s0,48(sp)
    80001c0c:	f426                	sd	s1,40(sp)
    80001c0e:	f04a                	sd	s2,32(sp)
    80001c10:	ec4e                	sd	s3,24(sp)
    80001c12:	e852                	sd	s4,16(sp)
    80001c14:	e456                	sd	s5,8(sp)
    80001c16:	e05a                	sd	s6,0(sp)
    80001c18:	0080                	addi	s0,sp,64
    initlock(&pid_lock, "nextpid");
    80001c1a:	00006597          	auipc	a1,0x6
    80001c1e:	5d658593          	addi	a1,a1,1494 # 800081f0 <etext+0x1f0>
    80001c22:	0044f517          	auipc	a0,0x44f
    80001c26:	53e50513          	addi	a0,a0,1342 # 80451160 <pid_lock>
    80001c2a:	fffff097          	auipc	ra,0xfffff
    80001c2e:	108080e7          	jalr	264(ra) # 80000d32 <initlock>
    initlock(&wait_lock, "wait_lock");
    80001c32:	00006597          	auipc	a1,0x6
    80001c36:	5c658593          	addi	a1,a1,1478 # 800081f8 <etext+0x1f8>
    80001c3a:	0044f517          	auipc	a0,0x44f
    80001c3e:	53e50513          	addi	a0,a0,1342 # 80451178 <wait_lock>
    80001c42:	fffff097          	auipc	ra,0xfffff
    80001c46:	0f0080e7          	jalr	240(ra) # 80000d32 <initlock>
    for (p = proc; p < &proc[NPROC]; p++)
    80001c4a:	0044f497          	auipc	s1,0x44f
    80001c4e:	54648493          	addi	s1,s1,1350 # 80451190 <proc>
        initlock(&p->lock, "proc");
    80001c52:	00006b17          	auipc	s6,0x6
    80001c56:	5b6b0b13          	addi	s6,s6,1462 # 80008208 <etext+0x208>
        p->kstack = KSTACK((int)(p - proc));
    80001c5a:	8aa6                	mv	s5,s1
    80001c5c:	a4fa57b7          	lui	a5,0xa4fa5
    80001c60:	fa578793          	addi	a5,a5,-91 # ffffffffa4fa4fa5 <end+0xffffffff24b43035>
    80001c64:	4fa50937          	lui	s2,0x4fa50
    80001c68:	a5090913          	addi	s2,s2,-1456 # 4fa4fa50 <_entry-0x305b05b0>
    80001c6c:	1902                	slli	s2,s2,0x20
    80001c6e:	993e                	add	s2,s2,a5
    80001c70:	040009b7          	lui	s3,0x4000
    80001c74:	19fd                	addi	s3,s3,-1 # 3ffffff <_entry-0x7c000001>
    80001c76:	09b2                	slli	s3,s3,0xc
    for (p = proc; p < &proc[NPROC]; p++)
    80001c78:	00455a17          	auipc	s4,0x455
    80001c7c:	f18a0a13          	addi	s4,s4,-232 # 80456b90 <tickslock>
        initlock(&p->lock, "proc");
    80001c80:	85da                	mv	a1,s6
    80001c82:	8526                	mv	a0,s1
    80001c84:	fffff097          	auipc	ra,0xfffff
    80001c88:	0ae080e7          	jalr	174(ra) # 80000d32 <initlock>
        p->state = UNUSED;
    80001c8c:	0004ac23          	sw	zero,24(s1)
        p->kstack = KSTACK((int)(p - proc));
    80001c90:	415487b3          	sub	a5,s1,s5
    80001c94:	878d                	srai	a5,a5,0x3
    80001c96:	032787b3          	mul	a5,a5,s2
    80001c9a:	2785                	addiw	a5,a5,1
    80001c9c:	00d7979b          	slliw	a5,a5,0xd
    80001ca0:	40f987b3          	sub	a5,s3,a5
    80001ca4:	e0bc                	sd	a5,64(s1)
    for (p = proc; p < &proc[NPROC]; p++)
    80001ca6:	16848493          	addi	s1,s1,360
    80001caa:	fd449be3          	bne	s1,s4,80001c80 <procinit+0x7a>
}
    80001cae:	70e2                	ld	ra,56(sp)
    80001cb0:	7442                	ld	s0,48(sp)
    80001cb2:	74a2                	ld	s1,40(sp)
    80001cb4:	7902                	ld	s2,32(sp)
    80001cb6:	69e2                	ld	s3,24(sp)
    80001cb8:	6a42                	ld	s4,16(sp)
    80001cba:	6aa2                	ld	s5,8(sp)
    80001cbc:	6b02                	ld	s6,0(sp)
    80001cbe:	6121                	addi	sp,sp,64
    80001cc0:	8082                	ret

0000000080001cc2 <copy_array>:
{
    80001cc2:	1141                	addi	sp,sp,-16
    80001cc4:	e406                	sd	ra,8(sp)
    80001cc6:	e022                	sd	s0,0(sp)
    80001cc8:	0800                	addi	s0,sp,16
    for (int i = 0; i < len; i++)
    80001cca:	00c05c63          	blez	a2,80001ce2 <copy_array+0x20>
    80001cce:	87aa                	mv	a5,a0
    80001cd0:	9532                	add	a0,a0,a2
        dst[i] = src[i];
    80001cd2:	0007c703          	lbu	a4,0(a5)
    80001cd6:	00e58023          	sb	a4,0(a1)
    for (int i = 0; i < len; i++)
    80001cda:	0785                	addi	a5,a5,1
    80001cdc:	0585                	addi	a1,a1,1
    80001cde:	fea79ae3          	bne	a5,a0,80001cd2 <copy_array+0x10>
}
    80001ce2:	60a2                	ld	ra,8(sp)
    80001ce4:	6402                	ld	s0,0(sp)
    80001ce6:	0141                	addi	sp,sp,16
    80001ce8:	8082                	ret

0000000080001cea <cpuid>:
{
    80001cea:	1141                	addi	sp,sp,-16
    80001cec:	e406                	sd	ra,8(sp)
    80001cee:	e022                	sd	s0,0(sp)
    80001cf0:	0800                	addi	s0,sp,16
    asm volatile("mv %0, tp" : "=r"(x));
    80001cf2:	8512                	mv	a0,tp
}
    80001cf4:	2501                	sext.w	a0,a0
    80001cf6:	60a2                	ld	ra,8(sp)
    80001cf8:	6402                	ld	s0,0(sp)
    80001cfa:	0141                	addi	sp,sp,16
    80001cfc:	8082                	ret

0000000080001cfe <mycpu>:
{
    80001cfe:	1141                	addi	sp,sp,-16
    80001d00:	e406                	sd	ra,8(sp)
    80001d02:	e022                	sd	s0,0(sp)
    80001d04:	0800                	addi	s0,sp,16
    80001d06:	8792                	mv	a5,tp
    struct cpu *c = &cpus[id];
    80001d08:	2781                	sext.w	a5,a5
    80001d0a:	079e                	slli	a5,a5,0x7
}
    80001d0c:	0044f517          	auipc	a0,0x44f
    80001d10:	05450513          	addi	a0,a0,84 # 80450d60 <cpus>
    80001d14:	953e                	add	a0,a0,a5
    80001d16:	60a2                	ld	ra,8(sp)
    80001d18:	6402                	ld	s0,0(sp)
    80001d1a:	0141                	addi	sp,sp,16
    80001d1c:	8082                	ret

0000000080001d1e <myproc>:
{
    80001d1e:	1101                	addi	sp,sp,-32
    80001d20:	ec06                	sd	ra,24(sp)
    80001d22:	e822                	sd	s0,16(sp)
    80001d24:	e426                	sd	s1,8(sp)
    80001d26:	1000                	addi	s0,sp,32
    push_off();
    80001d28:	fffff097          	auipc	ra,0xfffff
    80001d2c:	052080e7          	jalr	82(ra) # 80000d7a <push_off>
    80001d30:	8792                	mv	a5,tp
    struct proc *p = c->proc;
    80001d32:	2781                	sext.w	a5,a5
    80001d34:	079e                	slli	a5,a5,0x7
    80001d36:	0044f717          	auipc	a4,0x44f
    80001d3a:	02a70713          	addi	a4,a4,42 # 80450d60 <cpus>
    80001d3e:	97ba                	add	a5,a5,a4
    80001d40:	6384                	ld	s1,0(a5)
    pop_off();
    80001d42:	fffff097          	auipc	ra,0xfffff
    80001d46:	0d8080e7          	jalr	216(ra) # 80000e1a <pop_off>
}
    80001d4a:	8526                	mv	a0,s1
    80001d4c:	60e2                	ld	ra,24(sp)
    80001d4e:	6442                	ld	s0,16(sp)
    80001d50:	64a2                	ld	s1,8(sp)
    80001d52:	6105                	addi	sp,sp,32
    80001d54:	8082                	ret

0000000080001d56 <forkret>:
}

// A fork child's very first scheduling by scheduler()
// will swtch to forkret.
void forkret(void)
{
    80001d56:	1141                	addi	sp,sp,-16
    80001d58:	e406                	sd	ra,8(sp)
    80001d5a:	e022                	sd	s0,0(sp)
    80001d5c:	0800                	addi	s0,sp,16
    static int first = 1;

    // Still holding p->lock from scheduler.
    release(&myproc()->lock);
    80001d5e:	00000097          	auipc	ra,0x0
    80001d62:	fc0080e7          	jalr	-64(ra) # 80001d1e <myproc>
    80001d66:	fffff097          	auipc	ra,0xfffff
    80001d6a:	110080e7          	jalr	272(ra) # 80000e76 <release>

    if (first)
    80001d6e:	00007797          	auipc	a5,0x7
    80001d72:	cc27a783          	lw	a5,-830(a5) # 80008a30 <first.1>
    80001d76:	eb89                	bnez	a5,80001d88 <forkret+0x32>
        // be run from main().
        first = 0;
        fsinit(ROOTDEV);
    }

    usertrapret();
    80001d78:	00001097          	auipc	ra,0x1
    80001d7c:	e48080e7          	jalr	-440(ra) # 80002bc0 <usertrapret>
}
    80001d80:	60a2                	ld	ra,8(sp)
    80001d82:	6402                	ld	s0,0(sp)
    80001d84:	0141                	addi	sp,sp,16
    80001d86:	8082                	ret
        first = 0;
    80001d88:	00007797          	auipc	a5,0x7
    80001d8c:	ca07a423          	sw	zero,-856(a5) # 80008a30 <first.1>
        fsinit(ROOTDEV);
    80001d90:	4505                	li	a0,1
    80001d92:	00002097          	auipc	ra,0x2
    80001d96:	e04080e7          	jalr	-508(ra) # 80003b96 <fsinit>
    80001d9a:	bff9                	j	80001d78 <forkret+0x22>

0000000080001d9c <allocpid>:
{
    80001d9c:	1101                	addi	sp,sp,-32
    80001d9e:	ec06                	sd	ra,24(sp)
    80001da0:	e822                	sd	s0,16(sp)
    80001da2:	e426                	sd	s1,8(sp)
    80001da4:	e04a                	sd	s2,0(sp)
    80001da6:	1000                	addi	s0,sp,32
    acquire(&pid_lock);
    80001da8:	0044f917          	auipc	s2,0x44f
    80001dac:	3b890913          	addi	s2,s2,952 # 80451160 <pid_lock>
    80001db0:	854a                	mv	a0,s2
    80001db2:	fffff097          	auipc	ra,0xfffff
    80001db6:	014080e7          	jalr	20(ra) # 80000dc6 <acquire>
    pid = nextpid;
    80001dba:	00007797          	auipc	a5,0x7
    80001dbe:	c8678793          	addi	a5,a5,-890 # 80008a40 <nextpid>
    80001dc2:	4384                	lw	s1,0(a5)
    nextpid = nextpid + 1;
    80001dc4:	0014871b          	addiw	a4,s1,1
    80001dc8:	c398                	sw	a4,0(a5)
    release(&pid_lock);
    80001dca:	854a                	mv	a0,s2
    80001dcc:	fffff097          	auipc	ra,0xfffff
    80001dd0:	0aa080e7          	jalr	170(ra) # 80000e76 <release>
}
    80001dd4:	8526                	mv	a0,s1
    80001dd6:	60e2                	ld	ra,24(sp)
    80001dd8:	6442                	ld	s0,16(sp)
    80001dda:	64a2                	ld	s1,8(sp)
    80001ddc:	6902                	ld	s2,0(sp)
    80001dde:	6105                	addi	sp,sp,32
    80001de0:	8082                	ret

0000000080001de2 <proc_pagetable>:
{
    80001de2:	1101                	addi	sp,sp,-32
    80001de4:	ec06                	sd	ra,24(sp)
    80001de6:	e822                	sd	s0,16(sp)
    80001de8:	e426                	sd	s1,8(sp)
    80001dea:	e04a                	sd	s2,0(sp)
    80001dec:	1000                	addi	s0,sp,32
    80001dee:	892a                	mv	s2,a0
    pagetable = uvmcreate();
    80001df0:	fffff097          	auipc	ra,0xfffff
    80001df4:	74c080e7          	jalr	1868(ra) # 8000153c <uvmcreate>
    80001df8:	84aa                	mv	s1,a0
    if (pagetable == 0)
    80001dfa:	c121                	beqz	a0,80001e3a <proc_pagetable+0x58>
    if (mappages(pagetable, TRAMPOLINE, PGSIZE,
    80001dfc:	4729                	li	a4,10
    80001dfe:	00005697          	auipc	a3,0x5
    80001e02:	20268693          	addi	a3,a3,514 # 80007000 <_trampoline>
    80001e06:	6605                	lui	a2,0x1
    80001e08:	040005b7          	lui	a1,0x4000
    80001e0c:	15fd                	addi	a1,a1,-1 # 3ffffff <_entry-0x7c000001>
    80001e0e:	05b2                	slli	a1,a1,0xc
    80001e10:	fffff097          	auipc	ra,0xfffff
    80001e14:	492080e7          	jalr	1170(ra) # 800012a2 <mappages>
    80001e18:	02054863          	bltz	a0,80001e48 <proc_pagetable+0x66>
    if (mappages(pagetable, TRAPFRAME, PGSIZE,
    80001e1c:	4719                	li	a4,6
    80001e1e:	05893683          	ld	a3,88(s2)
    80001e22:	6605                	lui	a2,0x1
    80001e24:	020005b7          	lui	a1,0x2000
    80001e28:	15fd                	addi	a1,a1,-1 # 1ffffff <_entry-0x7e000001>
    80001e2a:	05b6                	slli	a1,a1,0xd
    80001e2c:	8526                	mv	a0,s1
    80001e2e:	fffff097          	auipc	ra,0xfffff
    80001e32:	474080e7          	jalr	1140(ra) # 800012a2 <mappages>
    80001e36:	02054163          	bltz	a0,80001e58 <proc_pagetable+0x76>
}
    80001e3a:	8526                	mv	a0,s1
    80001e3c:	60e2                	ld	ra,24(sp)
    80001e3e:	6442                	ld	s0,16(sp)
    80001e40:	64a2                	ld	s1,8(sp)
    80001e42:	6902                	ld	s2,0(sp)
    80001e44:	6105                	addi	sp,sp,32
    80001e46:	8082                	ret
        uvmfree(pagetable, 0);
    80001e48:	4581                	li	a1,0
    80001e4a:	8526                	mv	a0,s1
    80001e4c:	00000097          	auipc	ra,0x0
    80001e50:	90a080e7          	jalr	-1782(ra) # 80001756 <uvmfree>
        return 0;
    80001e54:	4481                	li	s1,0
    80001e56:	b7d5                	j	80001e3a <proc_pagetable+0x58>
        uvmunmap(pagetable, TRAMPOLINE, 1, 0);
    80001e58:	4681                	li	a3,0
    80001e5a:	4605                	li	a2,1
    80001e5c:	040005b7          	lui	a1,0x4000
    80001e60:	15fd                	addi	a1,a1,-1 # 3ffffff <_entry-0x7c000001>
    80001e62:	05b2                	slli	a1,a1,0xc
    80001e64:	8526                	mv	a0,s1
    80001e66:	fffff097          	auipc	ra,0xfffff
    80001e6a:	602080e7          	jalr	1538(ra) # 80001468 <uvmunmap>
        uvmfree(pagetable, 0);
    80001e6e:	4581                	li	a1,0
    80001e70:	8526                	mv	a0,s1
    80001e72:	00000097          	auipc	ra,0x0
    80001e76:	8e4080e7          	jalr	-1820(ra) # 80001756 <uvmfree>
        return 0;
    80001e7a:	4481                	li	s1,0
    80001e7c:	bf7d                	j	80001e3a <proc_pagetable+0x58>

0000000080001e7e <proc_freepagetable>:
{
    80001e7e:	1101                	addi	sp,sp,-32
    80001e80:	ec06                	sd	ra,24(sp)
    80001e82:	e822                	sd	s0,16(sp)
    80001e84:	e426                	sd	s1,8(sp)
    80001e86:	e04a                	sd	s2,0(sp)
    80001e88:	1000                	addi	s0,sp,32
    80001e8a:	84aa                	mv	s1,a0
    80001e8c:	892e                	mv	s2,a1
    uvmunmap(pagetable, TRAMPOLINE, 1, 0);
    80001e8e:	4681                	li	a3,0
    80001e90:	4605                	li	a2,1
    80001e92:	040005b7          	lui	a1,0x4000
    80001e96:	15fd                	addi	a1,a1,-1 # 3ffffff <_entry-0x7c000001>
    80001e98:	05b2                	slli	a1,a1,0xc
    80001e9a:	fffff097          	auipc	ra,0xfffff
    80001e9e:	5ce080e7          	jalr	1486(ra) # 80001468 <uvmunmap>
    uvmunmap(pagetable, TRAPFRAME, 1, 0);
    80001ea2:	4681                	li	a3,0
    80001ea4:	4605                	li	a2,1
    80001ea6:	020005b7          	lui	a1,0x2000
    80001eaa:	15fd                	addi	a1,a1,-1 # 1ffffff <_entry-0x7e000001>
    80001eac:	05b6                	slli	a1,a1,0xd
    80001eae:	8526                	mv	a0,s1
    80001eb0:	fffff097          	auipc	ra,0xfffff
    80001eb4:	5b8080e7          	jalr	1464(ra) # 80001468 <uvmunmap>
    uvmfree(pagetable, sz);
    80001eb8:	85ca                	mv	a1,s2
    80001eba:	8526                	mv	a0,s1
    80001ebc:	00000097          	auipc	ra,0x0
    80001ec0:	89a080e7          	jalr	-1894(ra) # 80001756 <uvmfree>
}
    80001ec4:	60e2                	ld	ra,24(sp)
    80001ec6:	6442                	ld	s0,16(sp)
    80001ec8:	64a2                	ld	s1,8(sp)
    80001eca:	6902                	ld	s2,0(sp)
    80001ecc:	6105                	addi	sp,sp,32
    80001ece:	8082                	ret

0000000080001ed0 <freeproc>:
{
    80001ed0:	1101                	addi	sp,sp,-32
    80001ed2:	ec06                	sd	ra,24(sp)
    80001ed4:	e822                	sd	s0,16(sp)
    80001ed6:	e426                	sd	s1,8(sp)
    80001ed8:	1000                	addi	s0,sp,32
    80001eda:	84aa                	mv	s1,a0
    if (p->trapframe)
    80001edc:	6d28                	ld	a0,88(a0)
    80001ede:	c509                	beqz	a0,80001ee8 <freeproc+0x18>
        kfree((void *)p->trapframe);
    80001ee0:	fffff097          	auipc	ra,0xfffff
    80001ee4:	b7e080e7          	jalr	-1154(ra) # 80000a5e <kfree>
    p->trapframe = 0;
    80001ee8:	0404bc23          	sd	zero,88(s1)
    if (p->pagetable)
    80001eec:	68a8                	ld	a0,80(s1)
    80001eee:	c511                	beqz	a0,80001efa <freeproc+0x2a>
        proc_freepagetable(p->pagetable, p->sz);
    80001ef0:	64ac                	ld	a1,72(s1)
    80001ef2:	00000097          	auipc	ra,0x0
    80001ef6:	f8c080e7          	jalr	-116(ra) # 80001e7e <proc_freepagetable>
    p->pagetable = 0;
    80001efa:	0404b823          	sd	zero,80(s1)
    p->sz = 0;
    80001efe:	0404b423          	sd	zero,72(s1)
    p->pid = 0;
    80001f02:	0204a823          	sw	zero,48(s1)
    p->parent = 0;
    80001f06:	0204bc23          	sd	zero,56(s1)
    p->name[0] = 0;
    80001f0a:	14048c23          	sb	zero,344(s1)
    p->chan = 0;
    80001f0e:	0204b023          	sd	zero,32(s1)
    p->killed = 0;
    80001f12:	0204a423          	sw	zero,40(s1)
    p->xstate = 0;
    80001f16:	0204a623          	sw	zero,44(s1)
    p->state = UNUSED;
    80001f1a:	0004ac23          	sw	zero,24(s1)
}
    80001f1e:	60e2                	ld	ra,24(sp)
    80001f20:	6442                	ld	s0,16(sp)
    80001f22:	64a2                	ld	s1,8(sp)
    80001f24:	6105                	addi	sp,sp,32
    80001f26:	8082                	ret

0000000080001f28 <allocproc>:
{
    80001f28:	1101                	addi	sp,sp,-32
    80001f2a:	ec06                	sd	ra,24(sp)
    80001f2c:	e822                	sd	s0,16(sp)
    80001f2e:	e426                	sd	s1,8(sp)
    80001f30:	e04a                	sd	s2,0(sp)
    80001f32:	1000                	addi	s0,sp,32
    for (p = proc; p < &proc[NPROC]; p++)
    80001f34:	0044f497          	auipc	s1,0x44f
    80001f38:	25c48493          	addi	s1,s1,604 # 80451190 <proc>
    80001f3c:	00455917          	auipc	s2,0x455
    80001f40:	c5490913          	addi	s2,s2,-940 # 80456b90 <tickslock>
        acquire(&p->lock);
    80001f44:	8526                	mv	a0,s1
    80001f46:	fffff097          	auipc	ra,0xfffff
    80001f4a:	e80080e7          	jalr	-384(ra) # 80000dc6 <acquire>
        if (p->state == UNUSED)
    80001f4e:	4c9c                	lw	a5,24(s1)
    80001f50:	cf81                	beqz	a5,80001f68 <allocproc+0x40>
            release(&p->lock);
    80001f52:	8526                	mv	a0,s1
    80001f54:	fffff097          	auipc	ra,0xfffff
    80001f58:	f22080e7          	jalr	-222(ra) # 80000e76 <release>
    for (p = proc; p < &proc[NPROC]; p++)
    80001f5c:	16848493          	addi	s1,s1,360
    80001f60:	ff2492e3          	bne	s1,s2,80001f44 <allocproc+0x1c>
    return 0;
    80001f64:	4481                	li	s1,0
    80001f66:	a889                	j	80001fb8 <allocproc+0x90>
    p->pid = allocpid();
    80001f68:	00000097          	auipc	ra,0x0
    80001f6c:	e34080e7          	jalr	-460(ra) # 80001d9c <allocpid>
    80001f70:	d888                	sw	a0,48(s1)
    p->state = USED;
    80001f72:	4785                	li	a5,1
    80001f74:	cc9c                	sw	a5,24(s1)
    if ((p->trapframe = (struct trapframe *)kalloc()) == 0)
    80001f76:	fffff097          	auipc	ra,0xfffff
    80001f7a:	c8c080e7          	jalr	-884(ra) # 80000c02 <kalloc>
    80001f7e:	892a                	mv	s2,a0
    80001f80:	eca8                	sd	a0,88(s1)
    80001f82:	c131                	beqz	a0,80001fc6 <allocproc+0x9e>
    p->pagetable = proc_pagetable(p);
    80001f84:	8526                	mv	a0,s1
    80001f86:	00000097          	auipc	ra,0x0
    80001f8a:	e5c080e7          	jalr	-420(ra) # 80001de2 <proc_pagetable>
    80001f8e:	892a                	mv	s2,a0
    80001f90:	e8a8                	sd	a0,80(s1)
    if (p->pagetable == 0)
    80001f92:	c531                	beqz	a0,80001fde <allocproc+0xb6>
    memset(&p->context, 0, sizeof(p->context));
    80001f94:	07000613          	li	a2,112
    80001f98:	4581                	li	a1,0
    80001f9a:	06048513          	addi	a0,s1,96
    80001f9e:	fffff097          	auipc	ra,0xfffff
    80001fa2:	f20080e7          	jalr	-224(ra) # 80000ebe <memset>
    p->context.ra = (uint64)forkret;
    80001fa6:	00000797          	auipc	a5,0x0
    80001faa:	db078793          	addi	a5,a5,-592 # 80001d56 <forkret>
    80001fae:	f0bc                	sd	a5,96(s1)
    p->context.sp = p->kstack + PGSIZE;
    80001fb0:	60bc                	ld	a5,64(s1)
    80001fb2:	6705                	lui	a4,0x1
    80001fb4:	97ba                	add	a5,a5,a4
    80001fb6:	f4bc                	sd	a5,104(s1)
}
    80001fb8:	8526                	mv	a0,s1
    80001fba:	60e2                	ld	ra,24(sp)
    80001fbc:	6442                	ld	s0,16(sp)
    80001fbe:	64a2                	ld	s1,8(sp)
    80001fc0:	6902                	ld	s2,0(sp)
    80001fc2:	6105                	addi	sp,sp,32
    80001fc4:	8082                	ret
        freeproc(p);
    80001fc6:	8526                	mv	a0,s1
    80001fc8:	00000097          	auipc	ra,0x0
    80001fcc:	f08080e7          	jalr	-248(ra) # 80001ed0 <freeproc>
        release(&p->lock);
    80001fd0:	8526                	mv	a0,s1
    80001fd2:	fffff097          	auipc	ra,0xfffff
    80001fd6:	ea4080e7          	jalr	-348(ra) # 80000e76 <release>
        return 0;
    80001fda:	84ca                	mv	s1,s2
    80001fdc:	bff1                	j	80001fb8 <allocproc+0x90>
        freeproc(p);
    80001fde:	8526                	mv	a0,s1
    80001fe0:	00000097          	auipc	ra,0x0
    80001fe4:	ef0080e7          	jalr	-272(ra) # 80001ed0 <freeproc>
        release(&p->lock);
    80001fe8:	8526                	mv	a0,s1
    80001fea:	fffff097          	auipc	ra,0xfffff
    80001fee:	e8c080e7          	jalr	-372(ra) # 80000e76 <release>
        return 0;
    80001ff2:	84ca                	mv	s1,s2
    80001ff4:	b7d1                	j	80001fb8 <allocproc+0x90>

0000000080001ff6 <userinit>:
{
    80001ff6:	1101                	addi	sp,sp,-32
    80001ff8:	ec06                	sd	ra,24(sp)
    80001ffa:	e822                	sd	s0,16(sp)
    80001ffc:	e426                	sd	s1,8(sp)
    80001ffe:	1000                	addi	s0,sp,32
    p = allocproc();
    80002000:	00000097          	auipc	ra,0x0
    80002004:	f28080e7          	jalr	-216(ra) # 80001f28 <allocproc>
    80002008:	84aa                	mv	s1,a0
    initproc = p;
    8000200a:	00007797          	auipc	a5,0x7
    8000200e:	aca7bf23          	sd	a0,-1314(a5) # 80008ae8 <initproc>
    uvmfirst(p->pagetable, initcode, sizeof(initcode));
    80002012:	03400613          	li	a2,52
    80002016:	00007597          	auipc	a1,0x7
    8000201a:	a3a58593          	addi	a1,a1,-1478 # 80008a50 <initcode>
    8000201e:	6928                	ld	a0,80(a0)
    80002020:	fffff097          	auipc	ra,0xfffff
    80002024:	54a080e7          	jalr	1354(ra) # 8000156a <uvmfirst>
    p->sz = PGSIZE;
    80002028:	6785                	lui	a5,0x1
    8000202a:	e4bc                	sd	a5,72(s1)
    p->trapframe->epc = 0;     // user program counter
    8000202c:	6cb8                	ld	a4,88(s1)
    8000202e:	00073c23          	sd	zero,24(a4) # 1018 <_entry-0x7fffefe8>
    p->trapframe->sp = PGSIZE; // user stack pointer
    80002032:	6cb8                	ld	a4,88(s1)
    80002034:	fb1c                	sd	a5,48(a4)
    safestrcpy(p->name, "initcode", sizeof(p->name));
    80002036:	4641                	li	a2,16
    80002038:	00006597          	auipc	a1,0x6
    8000203c:	1d858593          	addi	a1,a1,472 # 80008210 <etext+0x210>
    80002040:	15848513          	addi	a0,s1,344
    80002044:	fffff097          	auipc	ra,0xfffff
    80002048:	fd0080e7          	jalr	-48(ra) # 80001014 <safestrcpy>
    p->cwd = namei("/");
    8000204c:	00006517          	auipc	a0,0x6
    80002050:	1d450513          	addi	a0,a0,468 # 80008220 <etext+0x220>
    80002054:	00002097          	auipc	ra,0x2
    80002058:	5aa080e7          	jalr	1450(ra) # 800045fe <namei>
    8000205c:	14a4b823          	sd	a0,336(s1)
    p->state = RUNNABLE;
    80002060:	478d                	li	a5,3
    80002062:	cc9c                	sw	a5,24(s1)
    release(&p->lock);
    80002064:	8526                	mv	a0,s1
    80002066:	fffff097          	auipc	ra,0xfffff
    8000206a:	e10080e7          	jalr	-496(ra) # 80000e76 <release>
}
    8000206e:	60e2                	ld	ra,24(sp)
    80002070:	6442                	ld	s0,16(sp)
    80002072:	64a2                	ld	s1,8(sp)
    80002074:	6105                	addi	sp,sp,32
    80002076:	8082                	ret

0000000080002078 <growproc>:
{
    80002078:	1101                	addi	sp,sp,-32
    8000207a:	ec06                	sd	ra,24(sp)
    8000207c:	e822                	sd	s0,16(sp)
    8000207e:	e426                	sd	s1,8(sp)
    80002080:	e04a                	sd	s2,0(sp)
    80002082:	1000                	addi	s0,sp,32
    80002084:	892a                	mv	s2,a0
    struct proc *p = myproc();
    80002086:	00000097          	auipc	ra,0x0
    8000208a:	c98080e7          	jalr	-872(ra) # 80001d1e <myproc>
    8000208e:	84aa                	mv	s1,a0
    sz = p->sz;
    80002090:	652c                	ld	a1,72(a0)
    if (n > 0)
    80002092:	01204c63          	bgtz	s2,800020aa <growproc+0x32>
    else if (n < 0)
    80002096:	02094663          	bltz	s2,800020c2 <growproc+0x4a>
    p->sz = sz;
    8000209a:	e4ac                	sd	a1,72(s1)
    return 0;
    8000209c:	4501                	li	a0,0
}
    8000209e:	60e2                	ld	ra,24(sp)
    800020a0:	6442                	ld	s0,16(sp)
    800020a2:	64a2                	ld	s1,8(sp)
    800020a4:	6902                	ld	s2,0(sp)
    800020a6:	6105                	addi	sp,sp,32
    800020a8:	8082                	ret
        if ((sz = uvmalloc(p->pagetable, sz, sz + n, PTE_W)) == 0)
    800020aa:	4691                	li	a3,4
    800020ac:	00b90633          	add	a2,s2,a1
    800020b0:	6928                	ld	a0,80(a0)
    800020b2:	fffff097          	auipc	ra,0xfffff
    800020b6:	572080e7          	jalr	1394(ra) # 80001624 <uvmalloc>
    800020ba:	85aa                	mv	a1,a0
    800020bc:	fd79                	bnez	a0,8000209a <growproc+0x22>
            return -1;
    800020be:	557d                	li	a0,-1
    800020c0:	bff9                	j	8000209e <growproc+0x26>
        sz = uvmdealloc(p->pagetable, sz, sz + n);
    800020c2:	00b90633          	add	a2,s2,a1
    800020c6:	6928                	ld	a0,80(a0)
    800020c8:	fffff097          	auipc	ra,0xfffff
    800020cc:	514080e7          	jalr	1300(ra) # 800015dc <uvmdealloc>
    800020d0:	85aa                	mv	a1,a0
    800020d2:	b7e1                	j	8000209a <growproc+0x22>

00000000800020d4 <ps>:
{
    800020d4:	711d                	addi	sp,sp,-96
    800020d6:	ec86                	sd	ra,88(sp)
    800020d8:	e8a2                	sd	s0,80(sp)
    800020da:	e4a6                	sd	s1,72(sp)
    800020dc:	e0ca                	sd	s2,64(sp)
    800020de:	fc4e                	sd	s3,56(sp)
    800020e0:	f852                	sd	s4,48(sp)
    800020e2:	f456                	sd	s5,40(sp)
    800020e4:	f05a                	sd	s6,32(sp)
    800020e6:	ec5e                	sd	s7,24(sp)
    800020e8:	e862                	sd	s8,16(sp)
    800020ea:	e466                	sd	s9,8(sp)
    800020ec:	1080                	addi	s0,sp,96
    800020ee:	84aa                	mv	s1,a0
    800020f0:	8a2e                	mv	s4,a1
    void *result = (void *)myproc()->sz;
    800020f2:	00000097          	auipc	ra,0x0
    800020f6:	c2c080e7          	jalr	-980(ra) # 80001d1e <myproc>
        return result;
    800020fa:	4901                	li	s2,0
    if (count == 0)
    800020fc:	0c0a0563          	beqz	s4,800021c6 <ps+0xf2>
    void *result = (void *)myproc()->sz;
    80002100:	04853b83          	ld	s7,72(a0)
    if (growproc(count * sizeof(struct user_proc)) < 0)
    80002104:	003a151b          	slliw	a0,s4,0x3
    80002108:	0145053b          	addw	a0,a0,s4
    8000210c:	050a                	slli	a0,a0,0x2
    8000210e:	00000097          	auipc	ra,0x0
    80002112:	f6a080e7          	jalr	-150(ra) # 80002078 <growproc>
    80002116:	14054163          	bltz	a0,80002258 <ps+0x184>
    struct user_proc loc_result[count];
    8000211a:	003a1a93          	slli	s5,s4,0x3
    8000211e:	9ad2                	add	s5,s5,s4
    80002120:	0a8a                	slli	s5,s5,0x2
    80002122:	00fa8793          	addi	a5,s5,15
    80002126:	8391                	srli	a5,a5,0x4
    80002128:	0792                	slli	a5,a5,0x4
    8000212a:	40f10133          	sub	sp,sp,a5
    8000212e:	8b0a                	mv	s6,sp
    struct proc *p = proc + start;
    80002130:	16800793          	li	a5,360
    80002134:	02f484b3          	mul	s1,s1,a5
    80002138:	0044f797          	auipc	a5,0x44f
    8000213c:	05878793          	addi	a5,a5,88 # 80451190 <proc>
    80002140:	94be                	add	s1,s1,a5
    if (p >= &proc[NPROC])
    80002142:	00455797          	auipc	a5,0x455
    80002146:	a4e78793          	addi	a5,a5,-1458 # 80456b90 <tickslock>
        return result;
    8000214a:	4901                	li	s2,0
    if (p >= &proc[NPROC])
    8000214c:	06f4fd63          	bgeu	s1,a5,800021c6 <ps+0xf2>
    acquire(&wait_lock);
    80002150:	0044f517          	auipc	a0,0x44f
    80002154:	02850513          	addi	a0,a0,40 # 80451178 <wait_lock>
    80002158:	fffff097          	auipc	ra,0xfffff
    8000215c:	c6e080e7          	jalr	-914(ra) # 80000dc6 <acquire>
    for (; p < &proc[NPROC]; p++)
    80002160:	01410913          	addi	s2,sp,20
    uint8 localCount = 0;
    80002164:	4981                	li	s3,0
        copy_array(p->name, loc_result[localCount].name, 16);
    80002166:	4cc1                	li	s9,16
    for (; p < &proc[NPROC]; p++)
    80002168:	00455c17          	auipc	s8,0x455
    8000216c:	a28c0c13          	addi	s8,s8,-1496 # 80456b90 <tickslock>
    80002170:	a07d                	j	8000221e <ps+0x14a>
            loc_result[localCount].state = UNUSED;
    80002172:	00399793          	slli	a5,s3,0x3
    80002176:	97ce                	add	a5,a5,s3
    80002178:	078a                	slli	a5,a5,0x2
    8000217a:	97da                	add	a5,a5,s6
    8000217c:	0007a023          	sw	zero,0(a5)
            release(&p->lock);
    80002180:	8526                	mv	a0,s1
    80002182:	fffff097          	auipc	ra,0xfffff
    80002186:	cf4080e7          	jalr	-780(ra) # 80000e76 <release>
    release(&wait_lock);
    8000218a:	0044f517          	auipc	a0,0x44f
    8000218e:	fee50513          	addi	a0,a0,-18 # 80451178 <wait_lock>
    80002192:	fffff097          	auipc	ra,0xfffff
    80002196:	ce4080e7          	jalr	-796(ra) # 80000e76 <release>
    if (localCount < count)
    8000219a:	0149f963          	bgeu	s3,s4,800021ac <ps+0xd8>
        loc_result[localCount].state = UNUSED; // if we reach the end of processes
    8000219e:	00399793          	slli	a5,s3,0x3
    800021a2:	97ce                	add	a5,a5,s3
    800021a4:	078a                	slli	a5,a5,0x2
    800021a6:	97da                	add	a5,a5,s6
    800021a8:	0007a023          	sw	zero,0(a5)
    void *result = (void *)myproc()->sz;
    800021ac:	895e                	mv	s2,s7
    copyout(myproc()->pagetable, (uint64)result, (void *)loc_result, count * sizeof(struct user_proc));
    800021ae:	00000097          	auipc	ra,0x0
    800021b2:	b70080e7          	jalr	-1168(ra) # 80001d1e <myproc>
    800021b6:	86d6                	mv	a3,s5
    800021b8:	865a                	mv	a2,s6
    800021ba:	85de                	mv	a1,s7
    800021bc:	6928                	ld	a0,80(a0)
    800021be:	fffff097          	auipc	ra,0xfffff
    800021c2:	6d8080e7          	jalr	1752(ra) # 80001896 <copyout>
}
    800021c6:	854a                	mv	a0,s2
    800021c8:	fa040113          	addi	sp,s0,-96
    800021cc:	60e6                	ld	ra,88(sp)
    800021ce:	6446                	ld	s0,80(sp)
    800021d0:	64a6                	ld	s1,72(sp)
    800021d2:	6906                	ld	s2,64(sp)
    800021d4:	79e2                	ld	s3,56(sp)
    800021d6:	7a42                	ld	s4,48(sp)
    800021d8:	7aa2                	ld	s5,40(sp)
    800021da:	7b02                	ld	s6,32(sp)
    800021dc:	6be2                	ld	s7,24(sp)
    800021de:	6c42                	ld	s8,16(sp)
    800021e0:	6ca2                	ld	s9,8(sp)
    800021e2:	6125                	addi	sp,sp,96
    800021e4:	8082                	ret
            acquire(&p->parent->lock);
    800021e6:	fffff097          	auipc	ra,0xfffff
    800021ea:	be0080e7          	jalr	-1056(ra) # 80000dc6 <acquire>
            loc_result[localCount].parent_id = p->parent->pid;
    800021ee:	7c88                	ld	a0,56(s1)
    800021f0:	591c                	lw	a5,48(a0)
    800021f2:	fef92e23          	sw	a5,-4(s2)
            release(&p->parent->lock);
    800021f6:	fffff097          	auipc	ra,0xfffff
    800021fa:	c80080e7          	jalr	-896(ra) # 80000e76 <release>
        release(&p->lock);
    800021fe:	8526                	mv	a0,s1
    80002200:	fffff097          	auipc	ra,0xfffff
    80002204:	c76080e7          	jalr	-906(ra) # 80000e76 <release>
        localCount++;
    80002208:	2985                	addiw	s3,s3,1
    8000220a:	0ff9f993          	zext.b	s3,s3
    for (; p < &proc[NPROC]; p++)
    8000220e:	16848493          	addi	s1,s1,360
    80002212:	f784fce3          	bgeu	s1,s8,8000218a <ps+0xb6>
        if (localCount == count)
    80002216:	02490913          	addi	s2,s2,36
    8000221a:	053a0163          	beq	s4,s3,8000225c <ps+0x188>
        acquire(&p->lock);
    8000221e:	8526                	mv	a0,s1
    80002220:	fffff097          	auipc	ra,0xfffff
    80002224:	ba6080e7          	jalr	-1114(ra) # 80000dc6 <acquire>
        if (p->state == UNUSED)
    80002228:	4c9c                	lw	a5,24(s1)
    8000222a:	d7a1                	beqz	a5,80002172 <ps+0x9e>
        loc_result[localCount].state = p->state;
    8000222c:	fef92623          	sw	a5,-20(s2)
        loc_result[localCount].killed = p->killed;
    80002230:	549c                	lw	a5,40(s1)
    80002232:	fef92823          	sw	a5,-16(s2)
        loc_result[localCount].xstate = p->xstate;
    80002236:	54dc                	lw	a5,44(s1)
    80002238:	fef92a23          	sw	a5,-12(s2)
        loc_result[localCount].pid = p->pid;
    8000223c:	589c                	lw	a5,48(s1)
    8000223e:	fef92c23          	sw	a5,-8(s2)
        copy_array(p->name, loc_result[localCount].name, 16);
    80002242:	8666                	mv	a2,s9
    80002244:	85ca                	mv	a1,s2
    80002246:	15848513          	addi	a0,s1,344
    8000224a:	00000097          	auipc	ra,0x0
    8000224e:	a78080e7          	jalr	-1416(ra) # 80001cc2 <copy_array>
        if (p->parent != 0) // init
    80002252:	7c88                	ld	a0,56(s1)
    80002254:	f949                	bnez	a0,800021e6 <ps+0x112>
    80002256:	b765                	j	800021fe <ps+0x12a>
        return result;
    80002258:	4901                	li	s2,0
    8000225a:	b7b5                	j	800021c6 <ps+0xf2>
    release(&wait_lock);
    8000225c:	0044f517          	auipc	a0,0x44f
    80002260:	f1c50513          	addi	a0,a0,-228 # 80451178 <wait_lock>
    80002264:	fffff097          	auipc	ra,0xfffff
    80002268:	c12080e7          	jalr	-1006(ra) # 80000e76 <release>
    if (localCount < count)
    8000226c:	b781                	j	800021ac <ps+0xd8>

000000008000226e <fork>:
{
    8000226e:	7139                	addi	sp,sp,-64
    80002270:	fc06                	sd	ra,56(sp)
    80002272:	f822                	sd	s0,48(sp)
    80002274:	f04a                	sd	s2,32(sp)
    80002276:	e456                	sd	s5,8(sp)
    80002278:	0080                	addi	s0,sp,64
    struct proc *p = myproc();
    8000227a:	00000097          	auipc	ra,0x0
    8000227e:	aa4080e7          	jalr	-1372(ra) # 80001d1e <myproc>
    80002282:	8aaa                	mv	s5,a0
    if((np = allocproc()) == 0){
    80002284:	00000097          	auipc	ra,0x0
    80002288:	ca4080e7          	jalr	-860(ra) # 80001f28 <allocproc>
    8000228c:	12050063          	beqz	a0,800023ac <fork+0x13e>
    80002290:	e852                	sd	s4,16(sp)
    80002292:	8a2a                	mv	s4,a0
    if(uvmcopy(p->pagetable, np->pagetable, p->sz) < 0){
    80002294:	048ab603          	ld	a2,72(s5)
    80002298:	692c                	ld	a1,80(a0)
    8000229a:	050ab503          	ld	a0,80(s5)
    8000229e:	fffff097          	auipc	ra,0xfffff
    800022a2:	4f2080e7          	jalr	1266(ra) # 80001790 <uvmcopy>
    800022a6:	04054a63          	bltz	a0,800022fa <fork+0x8c>
    800022aa:	f426                	sd	s1,40(sp)
    800022ac:	ec4e                	sd	s3,24(sp)
    np->sz = p->sz;
    800022ae:	048ab783          	ld	a5,72(s5)
    800022b2:	04fa3423          	sd	a5,72(s4)
    *(np->trapframe) = *(p->trapframe);
    800022b6:	058ab683          	ld	a3,88(s5)
    800022ba:	87b6                	mv	a5,a3
    800022bc:	058a3703          	ld	a4,88(s4)
    800022c0:	12068693          	addi	a3,a3,288
    800022c4:	0007b803          	ld	a6,0(a5)
    800022c8:	6788                	ld	a0,8(a5)
    800022ca:	6b8c                	ld	a1,16(a5)
    800022cc:	6f90                	ld	a2,24(a5)
    800022ce:	01073023          	sd	a6,0(a4)
    800022d2:	e708                	sd	a0,8(a4)
    800022d4:	eb0c                	sd	a1,16(a4)
    800022d6:	ef10                	sd	a2,24(a4)
    800022d8:	02078793          	addi	a5,a5,32
    800022dc:	02070713          	addi	a4,a4,32
    800022e0:	fed792e3          	bne	a5,a3,800022c4 <fork+0x56>
    np->trapframe->a0 = 0;
    800022e4:	058a3783          	ld	a5,88(s4)
    800022e8:	0607b823          	sd	zero,112(a5)
    for(i = 0; i < NOFILE; i++)
    800022ec:	0d0a8493          	addi	s1,s5,208
    800022f0:	0d0a0913          	addi	s2,s4,208
    800022f4:	150a8993          	addi	s3,s5,336
    800022f8:	a015                	j	8000231c <fork+0xae>
      freeproc(np);
    800022fa:	8552                	mv	a0,s4
    800022fc:	00000097          	auipc	ra,0x0
    80002300:	bd4080e7          	jalr	-1068(ra) # 80001ed0 <freeproc>
      release(&np->lock);
    80002304:	8552                	mv	a0,s4
    80002306:	fffff097          	auipc	ra,0xfffff
    8000230a:	b70080e7          	jalr	-1168(ra) # 80000e76 <release>
      return -1;
    8000230e:	597d                	li	s2,-1
    80002310:	6a42                	ld	s4,16(sp)
    80002312:	a071                	j	8000239e <fork+0x130>
    for(i = 0; i < NOFILE; i++)
    80002314:	04a1                	addi	s1,s1,8
    80002316:	0921                	addi	s2,s2,8
    80002318:	01348b63          	beq	s1,s3,8000232e <fork+0xc0>
      if(p->ofile[i])
    8000231c:	6088                	ld	a0,0(s1)
    8000231e:	d97d                	beqz	a0,80002314 <fork+0xa6>
        np->ofile[i] = filedup(p->ofile[i]);
    80002320:	00003097          	auipc	ra,0x3
    80002324:	962080e7          	jalr	-1694(ra) # 80004c82 <filedup>
    80002328:	00a93023          	sd	a0,0(s2)
    8000232c:	b7e5                	j	80002314 <fork+0xa6>
    np->cwd = idup(p->cwd);
    8000232e:	150ab503          	ld	a0,336(s5)
    80002332:	00002097          	auipc	ra,0x2
    80002336:	aaa080e7          	jalr	-1366(ra) # 80003ddc <idup>
    8000233a:	14aa3823          	sd	a0,336(s4)
    safestrcpy(np->name, p->name, sizeof(p->name));
    8000233e:	4641                	li	a2,16
    80002340:	158a8593          	addi	a1,s5,344
    80002344:	158a0513          	addi	a0,s4,344
    80002348:	fffff097          	auipc	ra,0xfffff
    8000234c:	ccc080e7          	jalr	-820(ra) # 80001014 <safestrcpy>
    pid = np->pid;
    80002350:	030a2903          	lw	s2,48(s4)
    release(&np->lock);
    80002354:	8552                	mv	a0,s4
    80002356:	fffff097          	auipc	ra,0xfffff
    8000235a:	b20080e7          	jalr	-1248(ra) # 80000e76 <release>
    acquire(&wait_lock);
    8000235e:	0044f497          	auipc	s1,0x44f
    80002362:	e1a48493          	addi	s1,s1,-486 # 80451178 <wait_lock>
    80002366:	8526                	mv	a0,s1
    80002368:	fffff097          	auipc	ra,0xfffff
    8000236c:	a5e080e7          	jalr	-1442(ra) # 80000dc6 <acquire>
    np->parent = p;
    80002370:	035a3c23          	sd	s5,56(s4)
    release(&wait_lock);
    80002374:	8526                	mv	a0,s1
    80002376:	fffff097          	auipc	ra,0xfffff
    8000237a:	b00080e7          	jalr	-1280(ra) # 80000e76 <release>
    acquire(&np->lock);
    8000237e:	8552                	mv	a0,s4
    80002380:	fffff097          	auipc	ra,0xfffff
    80002384:	a46080e7          	jalr	-1466(ra) # 80000dc6 <acquire>
    np->state = RUNNABLE;
    80002388:	478d                	li	a5,3
    8000238a:	00fa2c23          	sw	a5,24(s4)
    release(&np->lock);
    8000238e:	8552                	mv	a0,s4
    80002390:	fffff097          	auipc	ra,0xfffff
    80002394:	ae6080e7          	jalr	-1306(ra) # 80000e76 <release>
    return pid;
    80002398:	74a2                	ld	s1,40(sp)
    8000239a:	69e2                	ld	s3,24(sp)
    8000239c:	6a42                	ld	s4,16(sp)
}
    8000239e:	854a                	mv	a0,s2
    800023a0:	70e2                	ld	ra,56(sp)
    800023a2:	7442                	ld	s0,48(sp)
    800023a4:	7902                	ld	s2,32(sp)
    800023a6:	6aa2                	ld	s5,8(sp)
    800023a8:	6121                	addi	sp,sp,64
    800023aa:	8082                	ret
      return -1;
    800023ac:	597d                	li	s2,-1
    800023ae:	bfc5                	j	8000239e <fork+0x130>

00000000800023b0 <scheduler>:
{
    800023b0:	1101                	addi	sp,sp,-32
    800023b2:	ec06                	sd	ra,24(sp)
    800023b4:	e822                	sd	s0,16(sp)
    800023b6:	e426                	sd	s1,8(sp)
    800023b8:	1000                	addi	s0,sp,32
        (*sched_pointer)();
    800023ba:	00006497          	auipc	s1,0x6
    800023be:	67e48493          	addi	s1,s1,1662 # 80008a38 <sched_pointer>
    800023c2:	609c                	ld	a5,0(s1)
    800023c4:	9782                	jalr	a5
    while (1)
    800023c6:	bff5                	j	800023c2 <scheduler+0x12>

00000000800023c8 <sched>:
{
    800023c8:	7179                	addi	sp,sp,-48
    800023ca:	f406                	sd	ra,40(sp)
    800023cc:	f022                	sd	s0,32(sp)
    800023ce:	ec26                	sd	s1,24(sp)
    800023d0:	e84a                	sd	s2,16(sp)
    800023d2:	e44e                	sd	s3,8(sp)
    800023d4:	1800                	addi	s0,sp,48
    struct proc *p = myproc();
    800023d6:	00000097          	auipc	ra,0x0
    800023da:	948080e7          	jalr	-1720(ra) # 80001d1e <myproc>
    800023de:	84aa                	mv	s1,a0
    if (!holding(&p->lock))
    800023e0:	fffff097          	auipc	ra,0xfffff
    800023e4:	96c080e7          	jalr	-1684(ra) # 80000d4c <holding>
    800023e8:	c53d                	beqz	a0,80002456 <sched+0x8e>
    800023ea:	8792                	mv	a5,tp
    if (mycpu()->noff != 1)
    800023ec:	2781                	sext.w	a5,a5
    800023ee:	079e                	slli	a5,a5,0x7
    800023f0:	0044f717          	auipc	a4,0x44f
    800023f4:	97070713          	addi	a4,a4,-1680 # 80450d60 <cpus>
    800023f8:	97ba                	add	a5,a5,a4
    800023fa:	5fb8                	lw	a4,120(a5)
    800023fc:	4785                	li	a5,1
    800023fe:	06f71463          	bne	a4,a5,80002466 <sched+0x9e>
    if (p->state == RUNNING)
    80002402:	4c98                	lw	a4,24(s1)
    80002404:	4791                	li	a5,4
    80002406:	06f70863          	beq	a4,a5,80002476 <sched+0xae>
    asm volatile("csrr %0, sstatus" : "=r"(x));
    8000240a:	100027f3          	csrr	a5,sstatus
    return (x & SSTATUS_SIE) != 0;
    8000240e:	8b89                	andi	a5,a5,2
    if (intr_get())
    80002410:	ebbd                	bnez	a5,80002486 <sched+0xbe>
    asm volatile("mv %0, tp" : "=r"(x));
    80002412:	8792                	mv	a5,tp
    intena = mycpu()->intena;
    80002414:	0044f917          	auipc	s2,0x44f
    80002418:	94c90913          	addi	s2,s2,-1716 # 80450d60 <cpus>
    8000241c:	2781                	sext.w	a5,a5
    8000241e:	079e                	slli	a5,a5,0x7
    80002420:	97ca                	add	a5,a5,s2
    80002422:	07c7a983          	lw	s3,124(a5)
    80002426:	8592                	mv	a1,tp
    swtch(&p->context, &mycpu()->context);
    80002428:	2581                	sext.w	a1,a1
    8000242a:	059e                	slli	a1,a1,0x7
    8000242c:	05a1                	addi	a1,a1,8
    8000242e:	95ca                	add	a1,a1,s2
    80002430:	06048513          	addi	a0,s1,96
    80002434:	00000097          	auipc	ra,0x0
    80002438:	6de080e7          	jalr	1758(ra) # 80002b12 <swtch>
    8000243c:	8792                	mv	a5,tp
    mycpu()->intena = intena;
    8000243e:	2781                	sext.w	a5,a5
    80002440:	079e                	slli	a5,a5,0x7
    80002442:	993e                	add	s2,s2,a5
    80002444:	07392e23          	sw	s3,124(s2)
}
    80002448:	70a2                	ld	ra,40(sp)
    8000244a:	7402                	ld	s0,32(sp)
    8000244c:	64e2                	ld	s1,24(sp)
    8000244e:	6942                	ld	s2,16(sp)
    80002450:	69a2                	ld	s3,8(sp)
    80002452:	6145                	addi	sp,sp,48
    80002454:	8082                	ret
        panic("sched p->lock");
    80002456:	00006517          	auipc	a0,0x6
    8000245a:	dd250513          	addi	a0,a0,-558 # 80008228 <etext+0x228>
    8000245e:	ffffe097          	auipc	ra,0xffffe
    80002462:	102080e7          	jalr	258(ra) # 80000560 <panic>
        panic("sched locks");
    80002466:	00006517          	auipc	a0,0x6
    8000246a:	dd250513          	addi	a0,a0,-558 # 80008238 <etext+0x238>
    8000246e:	ffffe097          	auipc	ra,0xffffe
    80002472:	0f2080e7          	jalr	242(ra) # 80000560 <panic>
        panic("sched running");
    80002476:	00006517          	auipc	a0,0x6
    8000247a:	dd250513          	addi	a0,a0,-558 # 80008248 <etext+0x248>
    8000247e:	ffffe097          	auipc	ra,0xffffe
    80002482:	0e2080e7          	jalr	226(ra) # 80000560 <panic>
        panic("sched interruptible");
    80002486:	00006517          	auipc	a0,0x6
    8000248a:	dd250513          	addi	a0,a0,-558 # 80008258 <etext+0x258>
    8000248e:	ffffe097          	auipc	ra,0xffffe
    80002492:	0d2080e7          	jalr	210(ra) # 80000560 <panic>

0000000080002496 <yield>:
{
    80002496:	1101                	addi	sp,sp,-32
    80002498:	ec06                	sd	ra,24(sp)
    8000249a:	e822                	sd	s0,16(sp)
    8000249c:	e426                	sd	s1,8(sp)
    8000249e:	1000                	addi	s0,sp,32
    struct proc *p = myproc();
    800024a0:	00000097          	auipc	ra,0x0
    800024a4:	87e080e7          	jalr	-1922(ra) # 80001d1e <myproc>
    800024a8:	84aa                	mv	s1,a0
    acquire(&p->lock);
    800024aa:	fffff097          	auipc	ra,0xfffff
    800024ae:	91c080e7          	jalr	-1764(ra) # 80000dc6 <acquire>
    p->state = RUNNABLE;
    800024b2:	478d                	li	a5,3
    800024b4:	cc9c                	sw	a5,24(s1)
    sched();
    800024b6:	00000097          	auipc	ra,0x0
    800024ba:	f12080e7          	jalr	-238(ra) # 800023c8 <sched>
    release(&p->lock);
    800024be:	8526                	mv	a0,s1
    800024c0:	fffff097          	auipc	ra,0xfffff
    800024c4:	9b6080e7          	jalr	-1610(ra) # 80000e76 <release>
}
    800024c8:	60e2                	ld	ra,24(sp)
    800024ca:	6442                	ld	s0,16(sp)
    800024cc:	64a2                	ld	s1,8(sp)
    800024ce:	6105                	addi	sp,sp,32
    800024d0:	8082                	ret

00000000800024d2 <sleep>:

// Atomically release lock and sleep on chan.
// Reacquires lock when awakened.
void sleep(void *chan, struct spinlock *lk)
{
    800024d2:	7179                	addi	sp,sp,-48
    800024d4:	f406                	sd	ra,40(sp)
    800024d6:	f022                	sd	s0,32(sp)
    800024d8:	ec26                	sd	s1,24(sp)
    800024da:	e84a                	sd	s2,16(sp)
    800024dc:	e44e                	sd	s3,8(sp)
    800024de:	1800                	addi	s0,sp,48
    800024e0:	89aa                	mv	s3,a0
    800024e2:	892e                	mv	s2,a1
    struct proc *p = myproc();
    800024e4:	00000097          	auipc	ra,0x0
    800024e8:	83a080e7          	jalr	-1990(ra) # 80001d1e <myproc>
    800024ec:	84aa                	mv	s1,a0
    // Once we hold p->lock, we can be
    // guaranteed that we won't miss any wakeup
    // (wakeup locks p->lock),
    // so it's okay to release lk.

    acquire(&p->lock); // DOC: sleeplock1
    800024ee:	fffff097          	auipc	ra,0xfffff
    800024f2:	8d8080e7          	jalr	-1832(ra) # 80000dc6 <acquire>
    release(lk);
    800024f6:	854a                	mv	a0,s2
    800024f8:	fffff097          	auipc	ra,0xfffff
    800024fc:	97e080e7          	jalr	-1666(ra) # 80000e76 <release>

    // Go to sleep.
    p->chan = chan;
    80002500:	0334b023          	sd	s3,32(s1)
    p->state = SLEEPING;
    80002504:	4789                	li	a5,2
    80002506:	cc9c                	sw	a5,24(s1)

    sched();
    80002508:	00000097          	auipc	ra,0x0
    8000250c:	ec0080e7          	jalr	-320(ra) # 800023c8 <sched>

    // Tidy up.
    p->chan = 0;
    80002510:	0204b023          	sd	zero,32(s1)

    // Reacquire original lock.
    release(&p->lock);
    80002514:	8526                	mv	a0,s1
    80002516:	fffff097          	auipc	ra,0xfffff
    8000251a:	960080e7          	jalr	-1696(ra) # 80000e76 <release>
    acquire(lk);
    8000251e:	854a                	mv	a0,s2
    80002520:	fffff097          	auipc	ra,0xfffff
    80002524:	8a6080e7          	jalr	-1882(ra) # 80000dc6 <acquire>
}
    80002528:	70a2                	ld	ra,40(sp)
    8000252a:	7402                	ld	s0,32(sp)
    8000252c:	64e2                	ld	s1,24(sp)
    8000252e:	6942                	ld	s2,16(sp)
    80002530:	69a2                	ld	s3,8(sp)
    80002532:	6145                	addi	sp,sp,48
    80002534:	8082                	ret

0000000080002536 <wakeup>:

// Wake up all processes sleeping on chan.
// Must be called without any p->lock.
void wakeup(void *chan)
{
    80002536:	7139                	addi	sp,sp,-64
    80002538:	fc06                	sd	ra,56(sp)
    8000253a:	f822                	sd	s0,48(sp)
    8000253c:	f426                	sd	s1,40(sp)
    8000253e:	f04a                	sd	s2,32(sp)
    80002540:	ec4e                	sd	s3,24(sp)
    80002542:	e852                	sd	s4,16(sp)
    80002544:	e456                	sd	s5,8(sp)
    80002546:	0080                	addi	s0,sp,64
    80002548:	8a2a                	mv	s4,a0
    struct proc *p;

    for (p = proc; p < &proc[NPROC]; p++)
    8000254a:	0044f497          	auipc	s1,0x44f
    8000254e:	c4648493          	addi	s1,s1,-954 # 80451190 <proc>
    {
        if (p != myproc())
        {
            acquire(&p->lock);
            if (p->state == SLEEPING && p->chan == chan)
    80002552:	4989                	li	s3,2
            {
                p->state = RUNNABLE;
    80002554:	4a8d                	li	s5,3
    for (p = proc; p < &proc[NPROC]; p++)
    80002556:	00454917          	auipc	s2,0x454
    8000255a:	63a90913          	addi	s2,s2,1594 # 80456b90 <tickslock>
    8000255e:	a811                	j	80002572 <wakeup+0x3c>
            }
            release(&p->lock);
    80002560:	8526                	mv	a0,s1
    80002562:	fffff097          	auipc	ra,0xfffff
    80002566:	914080e7          	jalr	-1772(ra) # 80000e76 <release>
    for (p = proc; p < &proc[NPROC]; p++)
    8000256a:	16848493          	addi	s1,s1,360
    8000256e:	03248663          	beq	s1,s2,8000259a <wakeup+0x64>
        if (p != myproc())
    80002572:	fffff097          	auipc	ra,0xfffff
    80002576:	7ac080e7          	jalr	1964(ra) # 80001d1e <myproc>
    8000257a:	fea488e3          	beq	s1,a0,8000256a <wakeup+0x34>
            acquire(&p->lock);
    8000257e:	8526                	mv	a0,s1
    80002580:	fffff097          	auipc	ra,0xfffff
    80002584:	846080e7          	jalr	-1978(ra) # 80000dc6 <acquire>
            if (p->state == SLEEPING && p->chan == chan)
    80002588:	4c9c                	lw	a5,24(s1)
    8000258a:	fd379be3          	bne	a5,s3,80002560 <wakeup+0x2a>
    8000258e:	709c                	ld	a5,32(s1)
    80002590:	fd4798e3          	bne	a5,s4,80002560 <wakeup+0x2a>
                p->state = RUNNABLE;
    80002594:	0154ac23          	sw	s5,24(s1)
    80002598:	b7e1                	j	80002560 <wakeup+0x2a>
        }
    }
}
    8000259a:	70e2                	ld	ra,56(sp)
    8000259c:	7442                	ld	s0,48(sp)
    8000259e:	74a2                	ld	s1,40(sp)
    800025a0:	7902                	ld	s2,32(sp)
    800025a2:	69e2                	ld	s3,24(sp)
    800025a4:	6a42                	ld	s4,16(sp)
    800025a6:	6aa2                	ld	s5,8(sp)
    800025a8:	6121                	addi	sp,sp,64
    800025aa:	8082                	ret

00000000800025ac <reparent>:
{
    800025ac:	7179                	addi	sp,sp,-48
    800025ae:	f406                	sd	ra,40(sp)
    800025b0:	f022                	sd	s0,32(sp)
    800025b2:	ec26                	sd	s1,24(sp)
    800025b4:	e84a                	sd	s2,16(sp)
    800025b6:	e44e                	sd	s3,8(sp)
    800025b8:	e052                	sd	s4,0(sp)
    800025ba:	1800                	addi	s0,sp,48
    800025bc:	892a                	mv	s2,a0
    for (pp = proc; pp < &proc[NPROC]; pp++)
    800025be:	0044f497          	auipc	s1,0x44f
    800025c2:	bd248493          	addi	s1,s1,-1070 # 80451190 <proc>
            pp->parent = initproc;
    800025c6:	00006a17          	auipc	s4,0x6
    800025ca:	522a0a13          	addi	s4,s4,1314 # 80008ae8 <initproc>
    for (pp = proc; pp < &proc[NPROC]; pp++)
    800025ce:	00454997          	auipc	s3,0x454
    800025d2:	5c298993          	addi	s3,s3,1474 # 80456b90 <tickslock>
    800025d6:	a029                	j	800025e0 <reparent+0x34>
    800025d8:	16848493          	addi	s1,s1,360
    800025dc:	01348d63          	beq	s1,s3,800025f6 <reparent+0x4a>
        if (pp->parent == p)
    800025e0:	7c9c                	ld	a5,56(s1)
    800025e2:	ff279be3          	bne	a5,s2,800025d8 <reparent+0x2c>
            pp->parent = initproc;
    800025e6:	000a3503          	ld	a0,0(s4)
    800025ea:	fc88                	sd	a0,56(s1)
            wakeup(initproc);
    800025ec:	00000097          	auipc	ra,0x0
    800025f0:	f4a080e7          	jalr	-182(ra) # 80002536 <wakeup>
    800025f4:	b7d5                	j	800025d8 <reparent+0x2c>
}
    800025f6:	70a2                	ld	ra,40(sp)
    800025f8:	7402                	ld	s0,32(sp)
    800025fa:	64e2                	ld	s1,24(sp)
    800025fc:	6942                	ld	s2,16(sp)
    800025fe:	69a2                	ld	s3,8(sp)
    80002600:	6a02                	ld	s4,0(sp)
    80002602:	6145                	addi	sp,sp,48
    80002604:	8082                	ret

0000000080002606 <exit>:
{
    80002606:	7179                	addi	sp,sp,-48
    80002608:	f406                	sd	ra,40(sp)
    8000260a:	f022                	sd	s0,32(sp)
    8000260c:	ec26                	sd	s1,24(sp)
    8000260e:	e84a                	sd	s2,16(sp)
    80002610:	e44e                	sd	s3,8(sp)
    80002612:	e052                	sd	s4,0(sp)
    80002614:	1800                	addi	s0,sp,48
    80002616:	8a2a                	mv	s4,a0
    struct proc *p = myproc();
    80002618:	fffff097          	auipc	ra,0xfffff
    8000261c:	706080e7          	jalr	1798(ra) # 80001d1e <myproc>
    80002620:	89aa                	mv	s3,a0
    if (p == initproc)
    80002622:	00006797          	auipc	a5,0x6
    80002626:	4c67b783          	ld	a5,1222(a5) # 80008ae8 <initproc>
    8000262a:	0d050493          	addi	s1,a0,208
    8000262e:	15050913          	addi	s2,a0,336
    80002632:	00a79d63          	bne	a5,a0,8000264c <exit+0x46>
        panic("init exiting");
    80002636:	00006517          	auipc	a0,0x6
    8000263a:	c3a50513          	addi	a0,a0,-966 # 80008270 <etext+0x270>
    8000263e:	ffffe097          	auipc	ra,0xffffe
    80002642:	f22080e7          	jalr	-222(ra) # 80000560 <panic>
    for (int fd = 0; fd < NOFILE; fd++)
    80002646:	04a1                	addi	s1,s1,8
    80002648:	01248b63          	beq	s1,s2,8000265e <exit+0x58>
        if (p->ofile[fd])
    8000264c:	6088                	ld	a0,0(s1)
    8000264e:	dd65                	beqz	a0,80002646 <exit+0x40>
            fileclose(f);
    80002650:	00002097          	auipc	ra,0x2
    80002654:	684080e7          	jalr	1668(ra) # 80004cd4 <fileclose>
            p->ofile[fd] = 0;
    80002658:	0004b023          	sd	zero,0(s1)
    8000265c:	b7ed                	j	80002646 <exit+0x40>
    begin_op();
    8000265e:	00002097          	auipc	ra,0x2
    80002662:	1a6080e7          	jalr	422(ra) # 80004804 <begin_op>
    iput(p->cwd);
    80002666:	1509b503          	ld	a0,336(s3)
    8000266a:	00002097          	auipc	ra,0x2
    8000266e:	96e080e7          	jalr	-1682(ra) # 80003fd8 <iput>
    end_op();
    80002672:	00002097          	auipc	ra,0x2
    80002676:	20c080e7          	jalr	524(ra) # 8000487e <end_op>
    p->cwd = 0;
    8000267a:	1409b823          	sd	zero,336(s3)
    acquire(&wait_lock);
    8000267e:	0044f497          	auipc	s1,0x44f
    80002682:	afa48493          	addi	s1,s1,-1286 # 80451178 <wait_lock>
    80002686:	8526                	mv	a0,s1
    80002688:	ffffe097          	auipc	ra,0xffffe
    8000268c:	73e080e7          	jalr	1854(ra) # 80000dc6 <acquire>
    reparent(p);
    80002690:	854e                	mv	a0,s3
    80002692:	00000097          	auipc	ra,0x0
    80002696:	f1a080e7          	jalr	-230(ra) # 800025ac <reparent>
    wakeup(p->parent);
    8000269a:	0389b503          	ld	a0,56(s3)
    8000269e:	00000097          	auipc	ra,0x0
    800026a2:	e98080e7          	jalr	-360(ra) # 80002536 <wakeup>
    acquire(&p->lock);
    800026a6:	854e                	mv	a0,s3
    800026a8:	ffffe097          	auipc	ra,0xffffe
    800026ac:	71e080e7          	jalr	1822(ra) # 80000dc6 <acquire>
    p->xstate = status;
    800026b0:	0349a623          	sw	s4,44(s3)
    p->state = ZOMBIE;
    800026b4:	4795                	li	a5,5
    800026b6:	00f9ac23          	sw	a5,24(s3)
    release(&wait_lock);
    800026ba:	8526                	mv	a0,s1
    800026bc:	ffffe097          	auipc	ra,0xffffe
    800026c0:	7ba080e7          	jalr	1978(ra) # 80000e76 <release>
    sched();
    800026c4:	00000097          	auipc	ra,0x0
    800026c8:	d04080e7          	jalr	-764(ra) # 800023c8 <sched>
    panic("zombie exit");
    800026cc:	00006517          	auipc	a0,0x6
    800026d0:	bb450513          	addi	a0,a0,-1100 # 80008280 <etext+0x280>
    800026d4:	ffffe097          	auipc	ra,0xffffe
    800026d8:	e8c080e7          	jalr	-372(ra) # 80000560 <panic>

00000000800026dc <kill>:

// Kill the process with the given pid.
// The victim won't exit until it tries to return
// to user space (see usertrap() in trap.c).
int kill(int pid)
{
    800026dc:	7179                	addi	sp,sp,-48
    800026de:	f406                	sd	ra,40(sp)
    800026e0:	f022                	sd	s0,32(sp)
    800026e2:	ec26                	sd	s1,24(sp)
    800026e4:	e84a                	sd	s2,16(sp)
    800026e6:	e44e                	sd	s3,8(sp)
    800026e8:	1800                	addi	s0,sp,48
    800026ea:	892a                	mv	s2,a0
    struct proc *p;

    for (p = proc; p < &proc[NPROC]; p++)
    800026ec:	0044f497          	auipc	s1,0x44f
    800026f0:	aa448493          	addi	s1,s1,-1372 # 80451190 <proc>
    800026f4:	00454997          	auipc	s3,0x454
    800026f8:	49c98993          	addi	s3,s3,1180 # 80456b90 <tickslock>
    {
        acquire(&p->lock);
    800026fc:	8526                	mv	a0,s1
    800026fe:	ffffe097          	auipc	ra,0xffffe
    80002702:	6c8080e7          	jalr	1736(ra) # 80000dc6 <acquire>
        if (p->pid == pid)
    80002706:	589c                	lw	a5,48(s1)
    80002708:	01278d63          	beq	a5,s2,80002722 <kill+0x46>
                p->state = RUNNABLE;
            }
            release(&p->lock);
            return 0;
        }
        release(&p->lock);
    8000270c:	8526                	mv	a0,s1
    8000270e:	ffffe097          	auipc	ra,0xffffe
    80002712:	768080e7          	jalr	1896(ra) # 80000e76 <release>
    for (p = proc; p < &proc[NPROC]; p++)
    80002716:	16848493          	addi	s1,s1,360
    8000271a:	ff3491e3          	bne	s1,s3,800026fc <kill+0x20>
    }
    return -1;
    8000271e:	557d                	li	a0,-1
    80002720:	a829                	j	8000273a <kill+0x5e>
            p->killed = 1;
    80002722:	4785                	li	a5,1
    80002724:	d49c                	sw	a5,40(s1)
            if (p->state == SLEEPING)
    80002726:	4c98                	lw	a4,24(s1)
    80002728:	4789                	li	a5,2
    8000272a:	00f70f63          	beq	a4,a5,80002748 <kill+0x6c>
            release(&p->lock);
    8000272e:	8526                	mv	a0,s1
    80002730:	ffffe097          	auipc	ra,0xffffe
    80002734:	746080e7          	jalr	1862(ra) # 80000e76 <release>
            return 0;
    80002738:	4501                	li	a0,0
}
    8000273a:	70a2                	ld	ra,40(sp)
    8000273c:	7402                	ld	s0,32(sp)
    8000273e:	64e2                	ld	s1,24(sp)
    80002740:	6942                	ld	s2,16(sp)
    80002742:	69a2                	ld	s3,8(sp)
    80002744:	6145                	addi	sp,sp,48
    80002746:	8082                	ret
                p->state = RUNNABLE;
    80002748:	478d                	li	a5,3
    8000274a:	cc9c                	sw	a5,24(s1)
    8000274c:	b7cd                	j	8000272e <kill+0x52>

000000008000274e <setkilled>:

void setkilled(struct proc *p)
{
    8000274e:	1101                	addi	sp,sp,-32
    80002750:	ec06                	sd	ra,24(sp)
    80002752:	e822                	sd	s0,16(sp)
    80002754:	e426                	sd	s1,8(sp)
    80002756:	1000                	addi	s0,sp,32
    80002758:	84aa                	mv	s1,a0
    acquire(&p->lock);
    8000275a:	ffffe097          	auipc	ra,0xffffe
    8000275e:	66c080e7          	jalr	1644(ra) # 80000dc6 <acquire>
    p->killed = 1;
    80002762:	4785                	li	a5,1
    80002764:	d49c                	sw	a5,40(s1)
    release(&p->lock);
    80002766:	8526                	mv	a0,s1
    80002768:	ffffe097          	auipc	ra,0xffffe
    8000276c:	70e080e7          	jalr	1806(ra) # 80000e76 <release>
}
    80002770:	60e2                	ld	ra,24(sp)
    80002772:	6442                	ld	s0,16(sp)
    80002774:	64a2                	ld	s1,8(sp)
    80002776:	6105                	addi	sp,sp,32
    80002778:	8082                	ret

000000008000277a <killed>:

int killed(struct proc *p)
{
    8000277a:	1101                	addi	sp,sp,-32
    8000277c:	ec06                	sd	ra,24(sp)
    8000277e:	e822                	sd	s0,16(sp)
    80002780:	e426                	sd	s1,8(sp)
    80002782:	e04a                	sd	s2,0(sp)
    80002784:	1000                	addi	s0,sp,32
    80002786:	84aa                	mv	s1,a0
    int k;

    acquire(&p->lock);
    80002788:	ffffe097          	auipc	ra,0xffffe
    8000278c:	63e080e7          	jalr	1598(ra) # 80000dc6 <acquire>
    k = p->killed;
    80002790:	0284a903          	lw	s2,40(s1)
    release(&p->lock);
    80002794:	8526                	mv	a0,s1
    80002796:	ffffe097          	auipc	ra,0xffffe
    8000279a:	6e0080e7          	jalr	1760(ra) # 80000e76 <release>
    return k;
}
    8000279e:	854a                	mv	a0,s2
    800027a0:	60e2                	ld	ra,24(sp)
    800027a2:	6442                	ld	s0,16(sp)
    800027a4:	64a2                	ld	s1,8(sp)
    800027a6:	6902                	ld	s2,0(sp)
    800027a8:	6105                	addi	sp,sp,32
    800027aa:	8082                	ret

00000000800027ac <wait>:
{
    800027ac:	715d                	addi	sp,sp,-80
    800027ae:	e486                	sd	ra,72(sp)
    800027b0:	e0a2                	sd	s0,64(sp)
    800027b2:	fc26                	sd	s1,56(sp)
    800027b4:	f84a                	sd	s2,48(sp)
    800027b6:	f44e                	sd	s3,40(sp)
    800027b8:	f052                	sd	s4,32(sp)
    800027ba:	ec56                	sd	s5,24(sp)
    800027bc:	e85a                	sd	s6,16(sp)
    800027be:	e45e                	sd	s7,8(sp)
    800027c0:	0880                	addi	s0,sp,80
    800027c2:	8b2a                	mv	s6,a0
    struct proc *p = myproc();
    800027c4:	fffff097          	auipc	ra,0xfffff
    800027c8:	55a080e7          	jalr	1370(ra) # 80001d1e <myproc>
    800027cc:	892a                	mv	s2,a0
    acquire(&wait_lock);
    800027ce:	0044f517          	auipc	a0,0x44f
    800027d2:	9aa50513          	addi	a0,a0,-1622 # 80451178 <wait_lock>
    800027d6:	ffffe097          	auipc	ra,0xffffe
    800027da:	5f0080e7          	jalr	1520(ra) # 80000dc6 <acquire>
                if (pp->state == ZOMBIE)
    800027de:	4a15                	li	s4,5
                havekids = 1;
    800027e0:	4a85                	li	s5,1
        for (pp = proc; pp < &proc[NPROC]; pp++)
    800027e2:	00454997          	auipc	s3,0x454
    800027e6:	3ae98993          	addi	s3,s3,942 # 80456b90 <tickslock>
        sleep(p, &wait_lock); // DOC: wait-sleep
    800027ea:	0044fb97          	auipc	s7,0x44f
    800027ee:	98eb8b93          	addi	s7,s7,-1650 # 80451178 <wait_lock>
    800027f2:	a0c9                	j	800028b4 <wait+0x108>
                    pid = pp->pid;
    800027f4:	0304a983          	lw	s3,48(s1)
                    if (addr != 0 && copyout(p->pagetable, addr, (char *)&pp->xstate,
    800027f8:	000b0e63          	beqz	s6,80002814 <wait+0x68>
    800027fc:	4691                	li	a3,4
    800027fe:	02c48613          	addi	a2,s1,44
    80002802:	85da                	mv	a1,s6
    80002804:	05093503          	ld	a0,80(s2)
    80002808:	fffff097          	auipc	ra,0xfffff
    8000280c:	08e080e7          	jalr	142(ra) # 80001896 <copyout>
    80002810:	04054063          	bltz	a0,80002850 <wait+0xa4>
                    freeproc(pp);
    80002814:	8526                	mv	a0,s1
    80002816:	fffff097          	auipc	ra,0xfffff
    8000281a:	6ba080e7          	jalr	1722(ra) # 80001ed0 <freeproc>
                    release(&pp->lock);
    8000281e:	8526                	mv	a0,s1
    80002820:	ffffe097          	auipc	ra,0xffffe
    80002824:	656080e7          	jalr	1622(ra) # 80000e76 <release>
                    release(&wait_lock);
    80002828:	0044f517          	auipc	a0,0x44f
    8000282c:	95050513          	addi	a0,a0,-1712 # 80451178 <wait_lock>
    80002830:	ffffe097          	auipc	ra,0xffffe
    80002834:	646080e7          	jalr	1606(ra) # 80000e76 <release>
}
    80002838:	854e                	mv	a0,s3
    8000283a:	60a6                	ld	ra,72(sp)
    8000283c:	6406                	ld	s0,64(sp)
    8000283e:	74e2                	ld	s1,56(sp)
    80002840:	7942                	ld	s2,48(sp)
    80002842:	79a2                	ld	s3,40(sp)
    80002844:	7a02                	ld	s4,32(sp)
    80002846:	6ae2                	ld	s5,24(sp)
    80002848:	6b42                	ld	s6,16(sp)
    8000284a:	6ba2                	ld	s7,8(sp)
    8000284c:	6161                	addi	sp,sp,80
    8000284e:	8082                	ret
                        release(&pp->lock);
    80002850:	8526                	mv	a0,s1
    80002852:	ffffe097          	auipc	ra,0xffffe
    80002856:	624080e7          	jalr	1572(ra) # 80000e76 <release>
                        release(&wait_lock);
    8000285a:	0044f517          	auipc	a0,0x44f
    8000285e:	91e50513          	addi	a0,a0,-1762 # 80451178 <wait_lock>
    80002862:	ffffe097          	auipc	ra,0xffffe
    80002866:	614080e7          	jalr	1556(ra) # 80000e76 <release>
                        return -1;
    8000286a:	59fd                	li	s3,-1
    8000286c:	b7f1                	j	80002838 <wait+0x8c>
        for (pp = proc; pp < &proc[NPROC]; pp++)
    8000286e:	16848493          	addi	s1,s1,360
    80002872:	03348463          	beq	s1,s3,8000289a <wait+0xee>
            if (pp->parent == p)
    80002876:	7c9c                	ld	a5,56(s1)
    80002878:	ff279be3          	bne	a5,s2,8000286e <wait+0xc2>
                acquire(&pp->lock);
    8000287c:	8526                	mv	a0,s1
    8000287e:	ffffe097          	auipc	ra,0xffffe
    80002882:	548080e7          	jalr	1352(ra) # 80000dc6 <acquire>
                if (pp->state == ZOMBIE)
    80002886:	4c9c                	lw	a5,24(s1)
    80002888:	f74786e3          	beq	a5,s4,800027f4 <wait+0x48>
                release(&pp->lock);
    8000288c:	8526                	mv	a0,s1
    8000288e:	ffffe097          	auipc	ra,0xffffe
    80002892:	5e8080e7          	jalr	1512(ra) # 80000e76 <release>
                havekids = 1;
    80002896:	8756                	mv	a4,s5
    80002898:	bfd9                	j	8000286e <wait+0xc2>
        if (!havekids || killed(p))
    8000289a:	c31d                	beqz	a4,800028c0 <wait+0x114>
    8000289c:	854a                	mv	a0,s2
    8000289e:	00000097          	auipc	ra,0x0
    800028a2:	edc080e7          	jalr	-292(ra) # 8000277a <killed>
    800028a6:	ed09                	bnez	a0,800028c0 <wait+0x114>
        sleep(p, &wait_lock); // DOC: wait-sleep
    800028a8:	85de                	mv	a1,s7
    800028aa:	854a                	mv	a0,s2
    800028ac:	00000097          	auipc	ra,0x0
    800028b0:	c26080e7          	jalr	-986(ra) # 800024d2 <sleep>
        havekids = 0;
    800028b4:	4701                	li	a4,0
        for (pp = proc; pp < &proc[NPROC]; pp++)
    800028b6:	0044f497          	auipc	s1,0x44f
    800028ba:	8da48493          	addi	s1,s1,-1830 # 80451190 <proc>
    800028be:	bf65                	j	80002876 <wait+0xca>
            release(&wait_lock);
    800028c0:	0044f517          	auipc	a0,0x44f
    800028c4:	8b850513          	addi	a0,a0,-1864 # 80451178 <wait_lock>
    800028c8:	ffffe097          	auipc	ra,0xffffe
    800028cc:	5ae080e7          	jalr	1454(ra) # 80000e76 <release>
            return -1;
    800028d0:	59fd                	li	s3,-1
    800028d2:	b79d                	j	80002838 <wait+0x8c>

00000000800028d4 <either_copyout>:

// Copy to either a user address, or kernel address,
// depending on usr_dst.
// Returns 0 on success, -1 on error.
int either_copyout(int user_dst, uint64 dst, void *src, uint64 len)
{
    800028d4:	7179                	addi	sp,sp,-48
    800028d6:	f406                	sd	ra,40(sp)
    800028d8:	f022                	sd	s0,32(sp)
    800028da:	ec26                	sd	s1,24(sp)
    800028dc:	e84a                	sd	s2,16(sp)
    800028de:	e44e                	sd	s3,8(sp)
    800028e0:	e052                	sd	s4,0(sp)
    800028e2:	1800                	addi	s0,sp,48
    800028e4:	84aa                	mv	s1,a0
    800028e6:	892e                	mv	s2,a1
    800028e8:	89b2                	mv	s3,a2
    800028ea:	8a36                	mv	s4,a3
    struct proc *p = myproc();
    800028ec:	fffff097          	auipc	ra,0xfffff
    800028f0:	432080e7          	jalr	1074(ra) # 80001d1e <myproc>
    if (user_dst)
    800028f4:	c08d                	beqz	s1,80002916 <either_copyout+0x42>
    {
        return copyout(p->pagetable, dst, src, len);
    800028f6:	86d2                	mv	a3,s4
    800028f8:	864e                	mv	a2,s3
    800028fa:	85ca                	mv	a1,s2
    800028fc:	6928                	ld	a0,80(a0)
    800028fe:	fffff097          	auipc	ra,0xfffff
    80002902:	f98080e7          	jalr	-104(ra) # 80001896 <copyout>
    else
    {
        memmove((char *)dst, src, len);
        return 0;
    }
}
    80002906:	70a2                	ld	ra,40(sp)
    80002908:	7402                	ld	s0,32(sp)
    8000290a:	64e2                	ld	s1,24(sp)
    8000290c:	6942                	ld	s2,16(sp)
    8000290e:	69a2                	ld	s3,8(sp)
    80002910:	6a02                	ld	s4,0(sp)
    80002912:	6145                	addi	sp,sp,48
    80002914:	8082                	ret
        memmove((char *)dst, src, len);
    80002916:	000a061b          	sext.w	a2,s4
    8000291a:	85ce                	mv	a1,s3
    8000291c:	854a                	mv	a0,s2
    8000291e:	ffffe097          	auipc	ra,0xffffe
    80002922:	604080e7          	jalr	1540(ra) # 80000f22 <memmove>
        return 0;
    80002926:	8526                	mv	a0,s1
    80002928:	bff9                	j	80002906 <either_copyout+0x32>

000000008000292a <either_copyin>:

// Copy from either a user address, or kernel address,
// depending on usr_src.
// Returns 0 on success, -1 on error.
int either_copyin(void *dst, int user_src, uint64 src, uint64 len)
{
    8000292a:	7179                	addi	sp,sp,-48
    8000292c:	f406                	sd	ra,40(sp)
    8000292e:	f022                	sd	s0,32(sp)
    80002930:	ec26                	sd	s1,24(sp)
    80002932:	e84a                	sd	s2,16(sp)
    80002934:	e44e                	sd	s3,8(sp)
    80002936:	e052                	sd	s4,0(sp)
    80002938:	1800                	addi	s0,sp,48
    8000293a:	892a                	mv	s2,a0
    8000293c:	84ae                	mv	s1,a1
    8000293e:	89b2                	mv	s3,a2
    80002940:	8a36                	mv	s4,a3
    struct proc *p = myproc();
    80002942:	fffff097          	auipc	ra,0xfffff
    80002946:	3dc080e7          	jalr	988(ra) # 80001d1e <myproc>
    if (user_src)
    8000294a:	c08d                	beqz	s1,8000296c <either_copyin+0x42>
    {
        return copyin(p->pagetable, dst, src, len);
    8000294c:	86d2                	mv	a3,s4
    8000294e:	864e                	mv	a2,s3
    80002950:	85ca                	mv	a1,s2
    80002952:	6928                	ld	a0,80(a0)
    80002954:	fffff097          	auipc	ra,0xfffff
    80002958:	fce080e7          	jalr	-50(ra) # 80001922 <copyin>
    else
    {
        memmove(dst, (char *)src, len);
        return 0;
    }
}
    8000295c:	70a2                	ld	ra,40(sp)
    8000295e:	7402                	ld	s0,32(sp)
    80002960:	64e2                	ld	s1,24(sp)
    80002962:	6942                	ld	s2,16(sp)
    80002964:	69a2                	ld	s3,8(sp)
    80002966:	6a02                	ld	s4,0(sp)
    80002968:	6145                	addi	sp,sp,48
    8000296a:	8082                	ret
        memmove(dst, (char *)src, len);
    8000296c:	000a061b          	sext.w	a2,s4
    80002970:	85ce                	mv	a1,s3
    80002972:	854a                	mv	a0,s2
    80002974:	ffffe097          	auipc	ra,0xffffe
    80002978:	5ae080e7          	jalr	1454(ra) # 80000f22 <memmove>
        return 0;
    8000297c:	8526                	mv	a0,s1
    8000297e:	bff9                	j	8000295c <either_copyin+0x32>

0000000080002980 <procdump>:

// Print a process listing to console.  For debugging.
// Runs when user types ^P on console.
// No lock to avoid wedging a stuck machine further.
void procdump(void)
{
    80002980:	715d                	addi	sp,sp,-80
    80002982:	e486                	sd	ra,72(sp)
    80002984:	e0a2                	sd	s0,64(sp)
    80002986:	fc26                	sd	s1,56(sp)
    80002988:	f84a                	sd	s2,48(sp)
    8000298a:	f44e                	sd	s3,40(sp)
    8000298c:	f052                	sd	s4,32(sp)
    8000298e:	ec56                	sd	s5,24(sp)
    80002990:	e85a                	sd	s6,16(sp)
    80002992:	e45e                	sd	s7,8(sp)
    80002994:	0880                	addi	s0,sp,80
        [RUNNING] "run   ",
        [ZOMBIE] "zombie"};
    struct proc *p;
    char *state;

    printf("\n");
    80002996:	00005517          	auipc	a0,0x5
    8000299a:	67a50513          	addi	a0,a0,1658 # 80008010 <etext+0x10>
    8000299e:	ffffe097          	auipc	ra,0xffffe
    800029a2:	c1e080e7          	jalr	-994(ra) # 800005bc <printf>
    for (p = proc; p < &proc[NPROC]; p++)
    800029a6:	0044f497          	auipc	s1,0x44f
    800029aa:	94248493          	addi	s1,s1,-1726 # 804512e8 <proc+0x158>
    800029ae:	00454917          	auipc	s2,0x454
    800029b2:	33a90913          	addi	s2,s2,826 # 80456ce8 <bcache+0x140>
    {
        if (p->state == UNUSED)
            continue;
        if (p->state >= 0 && p->state < NELEM(states) && states[p->state])
    800029b6:	4b15                	li	s6,5
            state = states[p->state];
        else
            state = "???";
    800029b8:	00006997          	auipc	s3,0x6
    800029bc:	8d898993          	addi	s3,s3,-1832 # 80008290 <etext+0x290>
        printf("%d <%s %s", p->pid, state, p->name);
    800029c0:	00006a97          	auipc	s5,0x6
    800029c4:	8d8a8a93          	addi	s5,s5,-1832 # 80008298 <etext+0x298>
        printf("\n");
    800029c8:	00005a17          	auipc	s4,0x5
    800029cc:	648a0a13          	addi	s4,s4,1608 # 80008010 <etext+0x10>
        if (p->state >= 0 && p->state < NELEM(states) && states[p->state])
    800029d0:	00006b97          	auipc	s7,0x6
    800029d4:	f38b8b93          	addi	s7,s7,-200 # 80008908 <states.0>
    800029d8:	a00d                	j	800029fa <procdump+0x7a>
        printf("%d <%s %s", p->pid, state, p->name);
    800029da:	ed86a583          	lw	a1,-296(a3)
    800029de:	8556                	mv	a0,s5
    800029e0:	ffffe097          	auipc	ra,0xffffe
    800029e4:	bdc080e7          	jalr	-1060(ra) # 800005bc <printf>
        printf("\n");
    800029e8:	8552                	mv	a0,s4
    800029ea:	ffffe097          	auipc	ra,0xffffe
    800029ee:	bd2080e7          	jalr	-1070(ra) # 800005bc <printf>
    for (p = proc; p < &proc[NPROC]; p++)
    800029f2:	16848493          	addi	s1,s1,360
    800029f6:	03248263          	beq	s1,s2,80002a1a <procdump+0x9a>
        if (p->state == UNUSED)
    800029fa:	86a6                	mv	a3,s1
    800029fc:	ec04a783          	lw	a5,-320(s1)
    80002a00:	dbed                	beqz	a5,800029f2 <procdump+0x72>
            state = "???";
    80002a02:	864e                	mv	a2,s3
        if (p->state >= 0 && p->state < NELEM(states) && states[p->state])
    80002a04:	fcfb6be3          	bltu	s6,a5,800029da <procdump+0x5a>
    80002a08:	02079713          	slli	a4,a5,0x20
    80002a0c:	01d75793          	srli	a5,a4,0x1d
    80002a10:	97de                	add	a5,a5,s7
    80002a12:	6390                	ld	a2,0(a5)
    80002a14:	f279                	bnez	a2,800029da <procdump+0x5a>
            state = "???";
    80002a16:	864e                	mv	a2,s3
    80002a18:	b7c9                	j	800029da <procdump+0x5a>
    }
}
    80002a1a:	60a6                	ld	ra,72(sp)
    80002a1c:	6406                	ld	s0,64(sp)
    80002a1e:	74e2                	ld	s1,56(sp)
    80002a20:	7942                	ld	s2,48(sp)
    80002a22:	79a2                	ld	s3,40(sp)
    80002a24:	7a02                	ld	s4,32(sp)
    80002a26:	6ae2                	ld	s5,24(sp)
    80002a28:	6b42                	ld	s6,16(sp)
    80002a2a:	6ba2                	ld	s7,8(sp)
    80002a2c:	6161                	addi	sp,sp,80
    80002a2e:	8082                	ret

0000000080002a30 <schedls>:

void schedls()
{
    80002a30:	1141                	addi	sp,sp,-16
    80002a32:	e406                	sd	ra,8(sp)
    80002a34:	e022                	sd	s0,0(sp)
    80002a36:	0800                	addi	s0,sp,16
    printf("[ ]\tScheduler Name\tScheduler ID\n");
    80002a38:	00006517          	auipc	a0,0x6
    80002a3c:	87050513          	addi	a0,a0,-1936 # 800082a8 <etext+0x2a8>
    80002a40:	ffffe097          	auipc	ra,0xffffe
    80002a44:	b7c080e7          	jalr	-1156(ra) # 800005bc <printf>
    printf("====================================\n");
    80002a48:	00006517          	auipc	a0,0x6
    80002a4c:	88850513          	addi	a0,a0,-1912 # 800082d0 <etext+0x2d0>
    80002a50:	ffffe097          	auipc	ra,0xffffe
    80002a54:	b6c080e7          	jalr	-1172(ra) # 800005bc <printf>
    for (int i = 0; i < SCHEDC; i++)
    {
        if (available_schedulers[i].impl == sched_pointer)
    80002a58:	00006717          	auipc	a4,0x6
    80002a5c:	04073703          	ld	a4,64(a4) # 80008a98 <available_schedulers+0x10>
    80002a60:	00006797          	auipc	a5,0x6
    80002a64:	fd87b783          	ld	a5,-40(a5) # 80008a38 <sched_pointer>
    80002a68:	04f70663          	beq	a4,a5,80002ab4 <schedls+0x84>
        {
            printf("[*]\t");
        }
        else
        {
            printf("   \t");
    80002a6c:	00006517          	auipc	a0,0x6
    80002a70:	89450513          	addi	a0,a0,-1900 # 80008300 <etext+0x300>
    80002a74:	ffffe097          	auipc	ra,0xffffe
    80002a78:	b48080e7          	jalr	-1208(ra) # 800005bc <printf>
        }
        printf("%s\t%d\n", available_schedulers[i].name, available_schedulers[i].id);
    80002a7c:	00006617          	auipc	a2,0x6
    80002a80:	02462603          	lw	a2,36(a2) # 80008aa0 <available_schedulers+0x18>
    80002a84:	00006597          	auipc	a1,0x6
    80002a88:	00458593          	addi	a1,a1,4 # 80008a88 <available_schedulers>
    80002a8c:	00006517          	auipc	a0,0x6
    80002a90:	87c50513          	addi	a0,a0,-1924 # 80008308 <etext+0x308>
    80002a94:	ffffe097          	auipc	ra,0xffffe
    80002a98:	b28080e7          	jalr	-1240(ra) # 800005bc <printf>
    }
    printf("\n*: current scheduler\n\n");
    80002a9c:	00006517          	auipc	a0,0x6
    80002aa0:	87450513          	addi	a0,a0,-1932 # 80008310 <etext+0x310>
    80002aa4:	ffffe097          	auipc	ra,0xffffe
    80002aa8:	b18080e7          	jalr	-1256(ra) # 800005bc <printf>
}
    80002aac:	60a2                	ld	ra,8(sp)
    80002aae:	6402                	ld	s0,0(sp)
    80002ab0:	0141                	addi	sp,sp,16
    80002ab2:	8082                	ret
            printf("[*]\t");
    80002ab4:	00006517          	auipc	a0,0x6
    80002ab8:	84450513          	addi	a0,a0,-1980 # 800082f8 <etext+0x2f8>
    80002abc:	ffffe097          	auipc	ra,0xffffe
    80002ac0:	b00080e7          	jalr	-1280(ra) # 800005bc <printf>
    80002ac4:	bf65                	j	80002a7c <schedls+0x4c>

0000000080002ac6 <schedset>:

void schedset(int id)
{
    80002ac6:	1141                	addi	sp,sp,-16
    80002ac8:	e406                	sd	ra,8(sp)
    80002aca:	e022                	sd	s0,0(sp)
    80002acc:	0800                	addi	s0,sp,16
    if (id < 0 || SCHEDC <= id)
    80002ace:	e90d                	bnez	a0,80002b00 <schedset+0x3a>
    {
        printf("Scheduler unchanged: ID out of range\n");
        return;
    }
    sched_pointer = available_schedulers[id].impl;
    80002ad0:	00006797          	auipc	a5,0x6
    80002ad4:	fc87b783          	ld	a5,-56(a5) # 80008a98 <available_schedulers+0x10>
    80002ad8:	00006717          	auipc	a4,0x6
    80002adc:	f6f73023          	sd	a5,-160(a4) # 80008a38 <sched_pointer>
    printf("Scheduler successfully changed to %s\n", available_schedulers[id].name);
    80002ae0:	00006597          	auipc	a1,0x6
    80002ae4:	fa858593          	addi	a1,a1,-88 # 80008a88 <available_schedulers>
    80002ae8:	00006517          	auipc	a0,0x6
    80002aec:	86850513          	addi	a0,a0,-1944 # 80008350 <etext+0x350>
    80002af0:	ffffe097          	auipc	ra,0xffffe
    80002af4:	acc080e7          	jalr	-1332(ra) # 800005bc <printf>
}
    80002af8:	60a2                	ld	ra,8(sp)
    80002afa:	6402                	ld	s0,0(sp)
    80002afc:	0141                	addi	sp,sp,16
    80002afe:	8082                	ret
        printf("Scheduler unchanged: ID out of range\n");
    80002b00:	00006517          	auipc	a0,0x6
    80002b04:	82850513          	addi	a0,a0,-2008 # 80008328 <etext+0x328>
    80002b08:	ffffe097          	auipc	ra,0xffffe
    80002b0c:	ab4080e7          	jalr	-1356(ra) # 800005bc <printf>
        return;
    80002b10:	b7e5                	j	80002af8 <schedset+0x32>

0000000080002b12 <swtch>:
    80002b12:	00153023          	sd	ra,0(a0)
    80002b16:	00253423          	sd	sp,8(a0)
    80002b1a:	e900                	sd	s0,16(a0)
    80002b1c:	ed04                	sd	s1,24(a0)
    80002b1e:	03253023          	sd	s2,32(a0)
    80002b22:	03353423          	sd	s3,40(a0)
    80002b26:	03453823          	sd	s4,48(a0)
    80002b2a:	03553c23          	sd	s5,56(a0)
    80002b2e:	05653023          	sd	s6,64(a0)
    80002b32:	05753423          	sd	s7,72(a0)
    80002b36:	05853823          	sd	s8,80(a0)
    80002b3a:	05953c23          	sd	s9,88(a0)
    80002b3e:	07a53023          	sd	s10,96(a0)
    80002b42:	07b53423          	sd	s11,104(a0)
    80002b46:	0005b083          	ld	ra,0(a1)
    80002b4a:	0085b103          	ld	sp,8(a1)
    80002b4e:	6980                	ld	s0,16(a1)
    80002b50:	6d84                	ld	s1,24(a1)
    80002b52:	0205b903          	ld	s2,32(a1)
    80002b56:	0285b983          	ld	s3,40(a1)
    80002b5a:	0305ba03          	ld	s4,48(a1)
    80002b5e:	0385ba83          	ld	s5,56(a1)
    80002b62:	0405bb03          	ld	s6,64(a1)
    80002b66:	0485bb83          	ld	s7,72(a1)
    80002b6a:	0505bc03          	ld	s8,80(a1)
    80002b6e:	0585bc83          	ld	s9,88(a1)
    80002b72:	0605bd03          	ld	s10,96(a1)
    80002b76:	0685bd83          	ld	s11,104(a1)
    80002b7a:	8082                	ret

0000000080002b7c <trapinit>:

extern int devintr();

void
trapinit(void)
{
    80002b7c:	1141                	addi	sp,sp,-16
    80002b7e:	e406                	sd	ra,8(sp)
    80002b80:	e022                	sd	s0,0(sp)
    80002b82:	0800                	addi	s0,sp,16
  initlock(&tickslock, "time");
    80002b84:	00006597          	auipc	a1,0x6
    80002b88:	82458593          	addi	a1,a1,-2012 # 800083a8 <etext+0x3a8>
    80002b8c:	00454517          	auipc	a0,0x454
    80002b90:	00450513          	addi	a0,a0,4 # 80456b90 <tickslock>
    80002b94:	ffffe097          	auipc	ra,0xffffe
    80002b98:	19e080e7          	jalr	414(ra) # 80000d32 <initlock>
}
    80002b9c:	60a2                	ld	ra,8(sp)
    80002b9e:	6402                	ld	s0,0(sp)
    80002ba0:	0141                	addi	sp,sp,16
    80002ba2:	8082                	ret

0000000080002ba4 <trapinithart>:

// set up to take exceptions and traps while in the kernel.
void
trapinithart(void)
{
    80002ba4:	1141                	addi	sp,sp,-16
    80002ba6:	e406                	sd	ra,8(sp)
    80002ba8:	e022                	sd	s0,0(sp)
    80002baa:	0800                	addi	s0,sp,16
    asm volatile("csrw stvec, %0" : : "r"(x));
    80002bac:	00004797          	auipc	a5,0x4
    80002bb0:	87478793          	addi	a5,a5,-1932 # 80006420 <kernelvec>
